; ModuleID = 'C:/Users/alienBot/Documents/GitHub/DCT_base/DCT_base/DCT/.autopilot/db/a.o.3.bc'
target datalayout = "e-p:32:32:32-i1:8:8-i8:8:8-i16:16:16-i32:32:32-i64:64:64-f32:32:32-f64:64:64-f80:128:128-v64:64:64-v128:128:128-a0:0:64-f80:32:32-n8:16:32-S32"
target triple = "i686-pc-mingw32"

@ssdm_ins_sc_FIFO_IDC_9 = constant i32 0          ; [#uses=0 type=i32*]
@ssdm_ins_sc_FIFO_IDC_8 = constant i8 0           ; [#uses=0 type=i8*]
@ssdm_ins_sc_FIFO_IDC_7 = constant i1 false       ; [#uses=0 type=i1*]
@ssdm_ins_sc_FIFO_IDC_6 = constant i8 0           ; [#uses=0 type=i8*]
@ssdm_ins_sc_FIFO_IDC_5 = constant i1 false       ; [#uses=0 type=i1*]
@ssdm_ins_sc_FIFO_IDC_4 = global i1 false         ; [#uses=0 type=i1*]
@ssdm_ins_sc_FIFO_IDC_3 = global [100 x i32] zeroinitializer ; [#uses=0 type=[100 x i32]*]
@ssdm_ins_sc_FIFO_IDC_25 = global i32 0           ; [#uses=0 type=i32*]
@ssdm_ins_sc_FIFO_IDC_24 = global i8 0            ; [#uses=0 type=i8*]
@ssdm_ins_sc_FIFO_IDC_23 = global i1 false        ; [#uses=0 type=i1*]
@ssdm_ins_sc_FIFO_IDC_22 = global i8 0            ; [#uses=0 type=i8*]
@ssdm_ins_sc_FIFO_IDC_21 = global i1 false        ; [#uses=0 type=i1*]
@ssdm_ins_sc_FIFO_IDC_20 = global i1 false        ; [#uses=0 type=i1*]
@ssdm_ins_sc_FIFO_IDC_19 = constant i1 false      ; [#uses=0 type=i1*]
@ssdm_ins_sc_FIFO_IDC_17 = constant i1 false      ; [#uses=0 type=i1*]
@ssdm_ins_sc_FIFO_IDC_15 = constant i1 false      ; [#uses=0 type=i1*]
@ssdm_ins_sc_FIFO_IDC_13 = constant [100 x i32] zeroinitializer ; [#uses=0 type=[100 x i32]*]
@ssdm_ins_sc_FIFO_IDC_11 = constant [100 x i32] zeroinitializer ; [#uses=0 type=[100 x i32]*]
@ssdm_ins_sc_FIFO_IDC_1 = global [100 x i32] zeroinitializer ; [#uses=0 type=[100 x i32]*]
@ssdm_ins_sc_FIFO_IDC = global i1 false           ; [#uses=0 type=i1*]
@ssdm_ins_sc_FIFO_DCT_9 = constant i32 0          ; [#uses=0 type=i32*]
@ssdm_ins_sc_FIFO_DCT_8 = constant i8 0           ; [#uses=0 type=i8*]
@ssdm_ins_sc_FIFO_DCT_7 = constant i1 false       ; [#uses=0 type=i1*]
@ssdm_ins_sc_FIFO_DCT_6 = constant i8 0           ; [#uses=0 type=i8*]
@ssdm_ins_sc_FIFO_DCT_5 = constant i1 false       ; [#uses=0 type=i1*]
@ssdm_ins_sc_FIFO_DCT_4 = global i1 false         ; [#uses=0 type=i1*]
@ssdm_ins_sc_FIFO_DCT_3 = global [100 x i32] zeroinitializer ; [#uses=0 type=[100 x i32]*]
@ssdm_ins_sc_FIFO_DCT_25 = global i32 0           ; [#uses=0 type=i32*]
@ssdm_ins_sc_FIFO_DCT_24 = global i8 0            ; [#uses=0 type=i8*]
@ssdm_ins_sc_FIFO_DCT_23 = global i1 false        ; [#uses=0 type=i1*]
@ssdm_ins_sc_FIFO_DCT_22 = global i8 0            ; [#uses=0 type=i8*]
@ssdm_ins_sc_FIFO_DCT_21 = global i1 false        ; [#uses=0 type=i1*]
@ssdm_ins_sc_FIFO_DCT_20 = global i1 false        ; [#uses=0 type=i1*]
@ssdm_ins_sc_FIFO_DCT_19 = constant i1 false      ; [#uses=0 type=i1*]
@ssdm_ins_sc_FIFO_DCT_17 = constant i1 false      ; [#uses=0 type=i1*]
@ssdm_ins_sc_FIFO_DCT_15 = constant i1 false      ; [#uses=0 type=i1*]
@ssdm_ins_sc_FIFO_DCT_13 = constant [100 x i32] zeroinitializer ; [#uses=0 type=[100 x i32]*]
@ssdm_ins_sc_FIFO_DCT_11 = constant [100 x i32] zeroinitializer ; [#uses=0 type=[100 x i32]*]
@ssdm_ins_sc_FIFO_DCT_1 = global [100 x i32] zeroinitializer ; [#uses=0 type=[100 x i32]*]
@ssdm_ins_sc_FIFO_DCT = global i1 false           ; [#uses=0 type=i1*]
@ssdm_ins_imager_512_9 = constant i8 0            ; [#uses=0 type=i8*]
@ssdm_ins_imager_512_8 = constant i1 false        ; [#uses=0 type=i1*]
@ssdm_ins_imager_512_7 = constant i8 0            ; [#uses=0 type=i8*]
@ssdm_ins_imager_512_6 = constant i1 false        ; [#uses=0 type=i1*]
@ssdm_ins_imager_512_5 = constant i1 false        ; [#uses=0 type=i1*]
@ssdm_ins_imager_512_4 = global i1 false          ; [#uses=0 type=i1*]
@ssdm_ins_imager_512_3 = global [4096 x i8] zeroinitializer ; [#uses=0 type=[4096 x i8]*]
@ssdm_ins_imager_512_22 = global i1 false         ; [#uses=0 type=i1*]
@ssdm_ins_imager_512_21 = global i8 0             ; [#uses=0 type=i8*]
@ssdm_ins_imager_512_20 = global i1 false         ; [#uses=0 type=i1*]
@ssdm_ins_imager_512_19 = global i1 false         ; [#uses=0 type=i1*]
@ssdm_ins_imager_512_18 = constant i1 false       ; [#uses=0 type=i1*]
@ssdm_ins_imager_512_17 = global i1 false         ; [#uses=0 type=i1*]
@ssdm_ins_imager_512_15 = constant i1 false       ; [#uses=0 type=i1*]
@ssdm_ins_imager_512_13 = constant i1 false       ; [#uses=0 type=i1*]
@ssdm_ins_imager_512_11 = constant [4096 x i8] zeroinitializer ; [#uses=0 type=[4096 x i8]*]
@ssdm_ins_imager_512_1 = global i8 0              ; [#uses=0 type=i8*]
@ssdm_ins_imager_512_s = global i1 false          ; [#uses=0 type=i1*]
@ssdm_ins_blocker_512_9 = constant i8 0           ; [#uses=0 type=i8*]
@ssdm_ins_blocker_512_8 = constant i1 false       ; [#uses=0 type=i1*]
@ssdm_ins_blocker_512_7 = constant i8 0           ; [#uses=0 type=i8*]
@ssdm_ins_blocker_512_6 = constant i1 false       ; [#uses=0 type=i1*]
@ssdm_ins_blocker_512_5 = constant i1 false       ; [#uses=0 type=i1*]
@ssdm_ins_blocker_512_4 = global i1 false         ; [#uses=0 type=i1*]
@ssdm_ins_blocker_512_3 = global [4096 x i8] zeroinitializer ; [#uses=0 type=[4096 x i8]*]
@ssdm_ins_blocker_512_22 = global i1 false        ; [#uses=0 type=i1*]
@ssdm_ins_blocker_512_21 = global i8 0            ; [#uses=0 type=i8*]
@ssdm_ins_blocker_512_20 = global i1 false        ; [#uses=0 type=i1*]
@ssdm_ins_blocker_512_19 = global i1 false        ; [#uses=0 type=i1*]
@ssdm_ins_blocker_512_18 = constant i1 false      ; [#uses=0 type=i1*]
@ssdm_ins_blocker_512_17 = global i1 false        ; [#uses=0 type=i1*]
@ssdm_ins_blocker_512_15 = constant i1 false      ; [#uses=0 type=i1*]
@ssdm_ins_blocker_512_13 = constant i1 false      ; [#uses=0 type=i1*]
@ssdm_ins_blocker_512_11 = constant [4096 x i8] zeroinitializer ; [#uses=0 type=[4096 x i8]*]
@ssdm_ins_blocker_512_1 = global i8 0             ; [#uses=0 type=i8*]
@ssdm_ins_blocker_512 = global i1 false           ; [#uses=0 type=i1*]
@sc_FIFO_IDCT_ssdm_thread_M_Prc2 = external global i1 ; [#uses=1 type=i1*]
@sc_FIFO_IDCT_ssdm_thread_M_Prc1 = external global i1 ; [#uses=1 type=i1*]
@sc_FIFO_DCT_ssdm_thread_M_Prc2 = external global i1 ; [#uses=1 type=i1*]
@sc_FIFO_DCT_ssdm_thread_M_Prc1 = external global i1 ; [#uses=1 type=i1*]
@llvm_global_ctors_1 = appending global [5 x void ()*] [void ()* @_GLOBAL__I_a, void ()* @_GLOBAL__I_a52, void ()* @_GLOBAL__I_a78, void ()* @_GLOBAL__I_a106, void ()* @_GLOBAL__I_a132] ; [#uses=0 type=[5 x void ()*]*]
@llvm_global_ctors_0 = appending global [5 x i32] [i32 65535, i32 65535, i32 65535, i32 65535, i32 65535] ; [#uses=0 type=[5 x i32]*]
@imager_512_ssdm_thread_M_imager_buffer = external global i1 ; [#uses=1 type=i1*]
@imager_512_ssdm_thread_M_imager_512_main = external global i1 ; [#uses=1 type=i1*]
@blocker_512_ssdm_thread_M_blocker_buffer = external global i1 ; [#uses=1 type=i1*]
@blocker_512_ssdm_thread_M_blocker_512_main = external global i1 ; [#uses=1 type=i1*]
@block_pattern_old = constant [64 x i32] [i32 0, i32 1, i32 2, i32 3, i32 4, i32 5, i32 6, i32 7, i32 512, i32 513, i32 514, i32 515, i32 516, i32 517, i32 518, i32 519, i32 1024, i32 1025, i32 1026, i32 1027, i32 1028, i32 1029, i32 1030, i32 1031, i32 1536, i32 1537, i32 1538, i32 1539, i32 1540, i32 1541, i32 1542, i32 1543, i32 2048, i32 2049, i32 2050, i32 2051, i32 2052, i32 2053, i32 2054, i32 2055, i32 2560, i32 2561, i32 2562, i32 2563, i32 2564, i32 2565, i32 2566, i32 2567, i32 3072, i32 3073, i32 3074, i32 3075, i32 3076, i32 3077, i32 3078, i32 3079, i32 3584, i32 3585, i32 3586, i32 3587, i32 3588, i32 3589, i32 3590, i32 3591], align 4 ; [#uses=0 type=[64 x i32]*]
@block_pattern = constant [64 x i12] [i12 0, i12 1, i12 2, i12 3, i12 4, i12 5, i12 6, i12 7, i12 512, i12 513, i12 514, i12 515, i12 516, i12 517, i12 518, i12 519, i12 1024, i12 1025, i12 1026, i12 1027, i12 1028, i12 1029, i12 1030, i12 1031, i12 1536, i12 1537, i12 1538, i12 1539, i12 1540, i12 1541, i12 1542, i12 1543, i12 -2048, i12 -2047, i12 -2046, i12 -2045, i12 -2044, i12 -2043, i12 -2042, i12 -2041, i12 -1536, i12 -1535, i12 -1534, i12 -1533, i12 -1532, i12 -1531, i12 -1530, i12 -1529, i12 -1024, i12 -1023, i12 -1022, i12 -1021, i12 -1020, i12 -1019, i12 -1018, i12 -1017, i12 -512, i12 -511, i12 -510, i12 -509, i12 -508, i12 -507, i12 -506, i12 -505] ; [#uses=1 type=[64 x i12]*]
@b_a_1 = internal unnamed_addr constant [64 x i8] c"Z}vjZG0\18Zj0\E8\A6\83\8A\B9ZG\D0\83\A6\18vjZ\18\8A\B9Zj\D0\83Z\E8\8AGZ\96\D0}Z\B9\D0}\A6\E8v\96Z\960\18\A6}\8AGZ\83v\96Z\B90\E8" ; [#uses=1 type=[64 x i8]*]
@b_a = internal unnamed_addr constant [64 x i8] c"ZZZZZZZZ}jG\18\E8\B9\96\83v0\D0\8A\8A\D00vj\E8\83\B9G}\18\96Z\A6\A6ZZ\A6\A6ZG\83\18j\96\E8}\B90\8Av\D0\D0v\8A0\18\B9j\83}\96G\E8" ; [#uses=1 type=[64 x i8]*]
@b_1 = internal unnamed_addr constant [64 x i8] c"ZZZZZZZZ}jG\18\E8\B9\96\83v0\D0\8A\8A\D00vj\E8\83\B9G}\18\96Z\A6\A6ZZ\A6\A6ZG\83\18j\96\E8}\B90\8Av\D0\D0v\8A0\18\B9j\83}\96G\E8" ; [#uses=1 type=[64 x i8]*]
@b = internal unnamed_addr constant [64 x i8] c"Z}vjZG0\18Zj0\E8\A6\83\8A\B9ZG\D0\83\A6\18vjZ\18\8A\B9Zj\D0\83Z\E8\8AGZ\96\D0}Z\B9\D0}\A6\E8v\96Z\960\18\A6}\8AGZ\83v\96Z\B90\E8" ; [#uses=1 type=[64 x i8]*]
@p_str989 = private unnamed_addr constant [15 x i8] c"__ssdm_reset__\00", align 1 ; [#uses=4 type=[15 x i8]*]
@p_str963 = private unnamed_addr constant [15 x i8] c"__ssdm_reset__\00", align 1 ; [#uses=4 type=[15 x i8]*]
@p_str930 = private unnamed_addr constant [15 x i8] c"__ssdm_reset__\00", align 1 ; [#uses=4 type=[15 x i8]*]
@p_str9 = private unnamed_addr constant [15 x i8] c"__ssdm_reset__\00", align 1 ; [#uses=4 type=[15 x i8]*]
@p_str888 = private unnamed_addr constant [15 x i8] c"blocker_buffer\00", align 1 ; [#uses=4 type=[15 x i8]*]
@p_str862 = private unnamed_addr constant [14 x i8] c"imager_buffer\00", align 1 ; [#uses=4 type=[14 x i8]*]
@p_str829 = private unnamed_addr constant [5 x i8] c"Prc1\00", align 1 ; [#uses=4 type=[5 x i8]*]
@p_str80 = private unnamed_addr constant [12 x i8] c"blocker_512\00", align 1 ; [#uses=20 type=[12 x i8]*]
@p_str8 = private unnamed_addr constant [5 x i8] c"Prc1\00", align 1 ; [#uses=4 type=[5 x i8]*]
@p_str787 = private unnamed_addr constant [1 x i8] zeroinitializer, align 1 ; [#uses=38 type=[1 x i8]*]
@p_str761 = private unnamed_addr constant [1 x i8] zeroinitializer, align 1 ; [#uses=38 type=[1 x i8]*]
@p_str728 = private unnamed_addr constant [1 x i8] zeroinitializer, align 1 ; [#uses=38 type=[1 x i8]*]
@p_str7 = private unnamed_addr constant [1 x i8] zeroinitializer, align 1 ; [#uses=110 type=[1 x i8]*]
@p_str686 = private unnamed_addr constant [8 x i8] c"ap_fifo\00", align 1 ; [#uses=6 type=[8 x i8]*]
@p_str660 = private unnamed_addr constant [8 x i8] c"ap_fifo\00", align 1 ; [#uses=6 type=[8 x i8]*]
@p_str627 = private unnamed_addr constant [8 x i8] c"ap_fifo\00", align 1 ; [#uses=6 type=[8 x i8]*]
@p_str6 = private unnamed_addr constant [8 x i8] c"ap_fifo\00", align 1 ; [#uses=14 type=[8 x i8]*]
@p_str585 = private unnamed_addr constant [5 x i8] c"done\00", align 1 ; [#uses=3 type=[5 x i8]*]
@p_str559 = private unnamed_addr constant [5 x i8] c"done\00", align 1 ; [#uses=3 type=[5 x i8]*]
@p_str54 = private unnamed_addr constant [11 x i8] c"imager_512\00", align 1 ; [#uses=20 type=[11 x i8]*]
@p_str526 = private unnamed_addr constant [5 x i8] c"done\00", align 1 ; [#uses=3 type=[5 x i8]*]
@p_str5 = private unnamed_addr constant [5 x i8] c"done\00", align 1 ; [#uses=3 type=[5 x i8]*]
@p_str484 = private unnamed_addr constant [6 x i8] c"start\00", align 1 ; [#uses=3 type=[6 x i8]*]
@p_str458 = private unnamed_addr constant [6 x i8] c"start\00", align 1 ; [#uses=3 type=[6 x i8]*]
@p_str425 = private unnamed_addr constant [6 x i8] c"start\00", align 1 ; [#uses=3 type=[6 x i8]*]
@p_str4 = private unnamed_addr constant [6 x i8] c"start\00", align 1 ; [#uses=3 type=[6 x i8]*]
@p_str383 = private unnamed_addr constant [6 x i8] c"reset\00", align 1 ; [#uses=5 type=[6 x i8]*]
@p_str357 = private unnamed_addr constant [6 x i8] c"reset\00", align 1 ; [#uses=5 type=[6 x i8]*]
@p_str324 = private unnamed_addr constant [6 x i8] c"reset\00", align 1 ; [#uses=5 type=[6 x i8]*]
@p_str3 = private unnamed_addr constant [6 x i8] c"reset\00", align 1 ; [#uses=5 type=[6 x i8]*]
@p_str282 = private unnamed_addr constant [6 x i8] c"clock\00", align 1 ; [#uses=5 type=[6 x i8]*]
@p_str256 = private unnamed_addr constant [6 x i8] c"clock\00", align 1 ; [#uses=5 type=[6 x i8]*]
@p_str2446 = private unnamed_addr constant [13 x i8] c"\22sc_uint<8>\22\00", align 1 ; [#uses=2 type=[13 x i8]*]
@p_str24 = private unnamed_addr constant [13 x i8] c"\22sc_uint<8>\22\00", align 1 ; [#uses=2 type=[13 x i8]*]
@p_str223 = private unnamed_addr constant [6 x i8] c"clock\00", align 1 ; [#uses=5 type=[6 x i8]*]
@p_str22101 = private unnamed_addr constant [13 x i8] c"\22sc_uint<8>\22\00", align 1 ; [#uses=2 type=[13 x i8]*]
@p_str22 = private unnamed_addr constant [13 x i8] c"\22sc_uint<8>\22\00", align 1 ; [#uses=2 type=[13 x i8]*]
@p_str21 = private unnamed_addr constant [12 x i8] c"sc_FIFO_DCT\00", align 1 ; [#uses=20 type=[12 x i8]*]
@p_str2 = private unnamed_addr constant [6 x i8] c"clock\00", align 1 ; [#uses=5 type=[6 x i8]*]
@p_str1898 = private unnamed_addr constant [17 x i8] c"blocker_512_main\00", align 1 ; [#uses=4 type=[17 x i8]*]
@p_str1872 = private unnamed_addr constant [16 x i8] c"imager_512_main\00", align 1 ; [#uses=4 type=[16 x i8]*]
@p_str1839 = private unnamed_addr constant [5 x i8] c"Prc2\00", align 1 ; [#uses=4 type=[5 x i8]*]
@p_str181 = private unnamed_addr constant [7 x i8] c"\22bool\22\00", align 1 ; [#uses=12 type=[7 x i8]*]
@p_str18 = private unnamed_addr constant [5 x i8] c"Prc2\00", align 1 ; [#uses=4 type=[5 x i8]*]
@p_str155 = private unnamed_addr constant [7 x i8] c"\22bool\22\00", align 1 ; [#uses=12 type=[7 x i8]*]
@p_str1292 = private unnamed_addr constant [4 x i8] c"din\00", align 1 ; [#uses=1 type=[4 x i8]*]
@p_str1266 = private unnamed_addr constant [4 x i8] c"din\00", align 1 ; [#uses=1 type=[4 x i8]*]
@p_str1233 = private unnamed_addr constant [4 x i8] c"din\00", align 1 ; [#uses=1 type=[4 x i8]*]
@p_str122 = private unnamed_addr constant [7 x i8] c"\22bool\22\00", align 1 ; [#uses=12 type=[7 x i8]*]
@p_str12 = private unnamed_addr constant [4 x i8] c"din\00", align 1 ; [#uses=1 type=[4 x i8]*]
@p_str1191 = private unnamed_addr constant [5 x i8] c"dout\00", align 1 ; [#uses=1 type=[5 x i8]*]
@p_str1165 = private unnamed_addr constant [5 x i8] c"dout\00", align 1 ; [#uses=1 type=[5 x i8]*]
@p_str1132 = private unnamed_addr constant [5 x i8] c"dout\00", align 1 ; [#uses=1 type=[5 x i8]*]
@p_str11 = private unnamed_addr constant [5 x i8] c"dout\00", align 1 ; [#uses=1 type=[5 x i8]*]
@p_str1 = private unnamed_addr constant [7 x i8] c"\22bool\22\00", align 1 ; [#uses=12 type=[7 x i8]*]
@p_str = private unnamed_addr constant [13 x i8] c"sc_FIFO_IDCT\00", align 1 ; [#uses=20 type=[13 x i8]*]

; [#uses=0]
define weak void @"sc_FIFO_IDCT::sc_FIFO_IDCT"(i1* %sc_FIFO_IDCT_clock_m_if_Val, i1* %sc_FIFO_IDCT_reset_m_if_Val, i1* %sc_FIFO_IDCT_start_m_if_Val, i1* %sc_FIFO_IDCT_done_m_if_Val, i8* %sc_FIFO_IDCT_dout_m_if_Val_V, i8* %sc_FIFO_IDCT_din_m_if_Val_V, [100 x i32]* %sc_FIFO_IDCT_mA, [100 x i32]* %sc_FIFO_IDCT_mB, i1* %sc_FIFO_IDCT_write_done, i32* %sc_FIFO_IDCT_exec_cnt) {
  call void (...)* @_ssdm_op_SpecBitsMap(i1* %sc_FIFO_IDCT_clock_m_if_Val), !map !294
  call void (...)* @_ssdm_op_SpecBitsMap(i1* %sc_FIFO_IDCT_reset_m_if_Val), !map !298
  call void (...)* @_ssdm_op_SpecBitsMap(i1* %sc_FIFO_IDCT_start_m_if_Val), !map !302
  call void (...)* @_ssdm_op_SpecBitsMap(i1* %sc_FIFO_IDCT_done_m_if_Val), !map !306
  call void (...)* @_ssdm_op_SpecBitsMap(i8* %sc_FIFO_IDCT_dout_m_if_Val_V), !map !310
  call void (...)* @_ssdm_op_SpecBitsMap(i8* %sc_FIFO_IDCT_din_m_if_Val_V), !map !314
  call void (...)* @_ssdm_op_SpecBitsMap([100 x i32]* %sc_FIFO_IDCT_mA), !map !318
  call void (...)* @_ssdm_op_SpecBitsMap([100 x i32]* %sc_FIFO_IDCT_mB), !map !322
  call void (...)* @_ssdm_op_SpecBitsMap(i1* %sc_FIFO_IDCT_write_done), !map !326
  call void (...)* @_ssdm_op_SpecBitsMap(i32* %sc_FIFO_IDCT_exec_cnt), !map !330
  call void @llvm.dbg.value(metadata !{i1* %sc_FIFO_IDCT_clock_m_if_Val}, i64 0, metadata !334), !dbg !1376 ; [debug line = 24:3] [debug variable = sc_FIFO_IDCT.clock.m_if.Val]
  call void @llvm.dbg.value(metadata !{i1* %sc_FIFO_IDCT_reset_m_if_Val}, i64 0, metadata !1377), !dbg !1376 ; [debug line = 24:3] [debug variable = sc_FIFO_IDCT.reset.m_if.Val]
  call void @llvm.dbg.value(metadata !{i1* %sc_FIFO_IDCT_start_m_if_Val}, i64 0, metadata !1378), !dbg !1376 ; [debug line = 24:3] [debug variable = sc_FIFO_IDCT.start.m_if.Val]
  call void @llvm.dbg.value(metadata !{i1* %sc_FIFO_IDCT_done_m_if_Val}, i64 0, metadata !1379), !dbg !1376 ; [debug line = 24:3] [debug variable = sc_FIFO_IDCT.done.m_if.Val]
  call void @llvm.dbg.value(metadata !{i8* %sc_FIFO_IDCT_dout_m_if_Val_V}, i64 0, metadata !1390), !dbg !1376 ; [debug line = 24:3] [debug variable = sc_FIFO_IDCT.dout.m_if.Val.V]
  call void @llvm.dbg.value(metadata !{i8* %sc_FIFO_IDCT_din_m_if_Val_V}, i64 0, metadata !1406), !dbg !1376 ; [debug line = 24:3] [debug variable = sc_FIFO_IDCT.din.m_if.Val.V]
  call void @llvm.dbg.value(metadata !{[100 x i32]* %sc_FIFO_IDCT_mA}, i64 0, metadata !1415), !dbg !1376 ; [debug line = 24:3] [debug variable = sc_FIFO_IDCT.mA]
  call void @llvm.dbg.value(metadata !{[100 x i32]* %sc_FIFO_IDCT_mB}, i64 0, metadata !1419), !dbg !1376 ; [debug line = 24:3] [debug variable = sc_FIFO_IDCT.mB]
  call void @llvm.dbg.value(metadata !{i1* %sc_FIFO_IDCT_write_done}, i64 0, metadata !1423), !dbg !1376 ; [debug line = 24:3] [debug variable = sc_FIFO_IDCT.write_done]
  call void @llvm.dbg.value(metadata !{i32* %sc_FIFO_IDCT_exec_cnt}, i64 0, metadata !1427), !dbg !1376 ; [debug line = 24:3] [debug variable = sc_FIFO_IDCT.exec_cnt]
  call void @llvm.dbg.value(metadata !{i8* %sc_FIFO_IDCT_dout_m_if_Val_V}, i64 0, metadata !1431), !dbg !1437 ; [debug line = 502:18@25:2] [debug variable = sc_port_b<_ap_sc_::sc_core::sc_fifo_out_if<_ap_sc_::sc_dt::sc_uint<8> > >.m_if.Val.V]
  call void @llvm.dbg.value(metadata !{i8* %sc_FIFO_IDCT_dout_m_if_Val_V}, i64 0, metadata !1438), !dbg !1442 ; [debug line = 502:18@502:34@25:2] [debug variable = sc_port_b<_ap_sc_::sc_core::sc_fifo_out_if<_ap_sc_::sc_dt::sc_uint<8> > >.m_if.Val.V]
  call void @llvm.dbg.value(metadata !{i8* %sc_FIFO_IDCT_dout_m_if_Val_V}, i64 0, metadata !1443), !dbg !1450 ; [debug line = 252:47@285:68@502:32@502:34@25:2] [debug variable = sc_fifo_out_if<_ap_sc_::sc_dt::sc_uint<8> >.Val.V]
  call void @llvm.dbg.value(metadata !{i8* %sc_FIFO_IDCT_dout_m_if_Val_V}, i64 0, metadata !1451), !dbg !1455 ; [debug line = 252:47@255:9@285:68@502:32@502:34@25:2] [debug variable = sc_fifo_out_if<_ap_sc_::sc_dt::sc_uint<8> >.Val.V]
  call void (...)* @_ssdm_op_SpecInterface(i8* %sc_FIFO_IDCT_dout_m_if_Val_V, [8 x i8]* @p_str6, i32 0, i32 0, [1 x i8]* @p_str7, i32 0, i32 0, [1 x i8]* @p_str7, [1 x i8]* @p_str7, [1 x i8]* @p_str7, i32 0, i32 0, i32 0, i32 0, [1 x i8]* @p_str7, [1 x i8]* @p_str7) nounwind, !dbg !1456 ; [debug line = 253:13@255:9@285:68@502:32@502:34@25:2]
  call void (...)* @_ssdm_op_SpecPort([1 x i8]* @p_str7, i32 5, [1 x i8]* @p_str7, [1 x i8]* @p_str7, i32 0, i32 0, i8* %sc_FIFO_IDCT_dout_m_if_Val_V) nounwind, !dbg !1458 ; [debug line = 254:13@255:9@285:68@502:32@502:34@25:2]
  call void @llvm.dbg.value(metadata !{i8* %sc_FIFO_IDCT_din_m_if_Val_V}, i64 0, metadata !1459), !dbg !1464 ; [debug line = 490:18@25:2] [debug variable = sc_port_b<_ap_sc_::sc_core::sc_fifo_in_if<_ap_sc_::sc_dt::sc_uint<8> > >.m_if.Val.V]
  call void @llvm.dbg.value(metadata !{i8* %sc_FIFO_IDCT_din_m_if_Val_V}, i64 0, metadata !1465), !dbg !1469 ; [debug line = 490:18@490:33@25:2] [debug variable = sc_port_b<_ap_sc_::sc_core::sc_fifo_in_if<_ap_sc_::sc_dt::sc_uint<8> > >.m_if.Val.V]
  call void @llvm.dbg.value(metadata !{i8* %sc_FIFO_IDCT_din_m_if_Val_V}, i64 0, metadata !1470), !dbg !1477 ; [debug line = 229:47@285:68@490:31@490:33@25:2] [debug variable = sc_fifo_in_if<_ap_sc_::sc_dt::sc_uint<8> >.Val.V]
  call void @llvm.dbg.value(metadata !{i8* %sc_FIFO_IDCT_din_m_if_Val_V}, i64 0, metadata !1478), !dbg !1482 ; [debug line = 229:47@232:9@285:68@490:31@490:33@25:2] [debug variable = sc_fifo_in_if<_ap_sc_::sc_dt::sc_uint<8> >.Val.V]
  call void (...)* @_ssdm_op_SpecInterface(i8* %sc_FIFO_IDCT_din_m_if_Val_V, [8 x i8]* @p_str6, i32 0, i32 0, [1 x i8]* @p_str7, i32 0, i32 0, [1 x i8]* @p_str7, [1 x i8]* @p_str7, [1 x i8]* @p_str7, i32 0, i32 0, i32 0, i32 0, [1 x i8]* @p_str7, [1 x i8]* @p_str7) nounwind, !dbg !1483 ; [debug line = 230:12@232:9@285:68@490:31@490:33@25:2]
  call void (...)* @_ssdm_op_SpecPort([1 x i8]* @p_str7, i32 4, [1 x i8]* @p_str7, [1 x i8]* @p_str7, i32 0, i32 0, i8* %sc_FIFO_IDCT_din_m_if_Val_V) nounwind, !dbg !1485 ; [debug line = 231:12@232:9@285:68@490:31@490:33@25:2]
  call void (...)* @_ssdm_op_SpecTopModule([13 x i8]* @p_str, [13 x i8]* @p_str) nounwind, !dbg !1486 ; [debug line = 26:5]
  %sc_FIFO_IDCT_ssdm = load i1* @sc_FIFO_IDCT_ssdm_thread_M_Prc1, align 1, !dbg !1488 ; [#uses=1 type=i1] [debug line = 27:5]
  br i1 %sc_FIFO_IDCT_ssdm, label %1, label %2, !dbg !1488 ; [debug line = 27:5]

; <label>:1                                       ; preds = %0
  call void @"sc_FIFO_IDCT::Prc1"(i1* %sc_FIFO_IDCT_clock_m_if_Val, i1* %sc_FIFO_IDCT_reset_m_if_Val, i1* %sc_FIFO_IDCT_start_m_if_Val, i1* %sc_FIFO_IDCT_done_m_if_Val, i8* %sc_FIFO_IDCT_dout_m_if_Val_V, i8* %sc_FIFO_IDCT_din_m_if_Val_V, [100 x i32]* %sc_FIFO_IDCT_mA, [100 x i32]* %sc_FIFO_IDCT_mB, i1* %sc_FIFO_IDCT_write_done, i32* %sc_FIFO_IDCT_exec_cnt), !dbg !1489 ; [debug line = 27:31]
  br label %UnifiedUnreachableBlock

; <label>:2                                       ; preds = %0
  call void (...)* @_ssdm_op_SpecProcessDecl([13 x i8]* @p_str, i32 2, [5 x i8]* @p_str8) nounwind, !dbg !1490 ; [debug line = 27:39]
  call void (...)* @_ssdm_op_SpecSensitive([5 x i8]* @p_str8, [6 x i8]* @p_str2, i1* %sc_FIFO_IDCT_clock_m_if_Val, i32 1) nounwind, !dbg !1491 ; [debug line = 28:5]
  call void (...)* @_ssdm_op_SpecSensitive([5 x i8]* @p_str8, [6 x i8]* @p_str3, i1* %sc_FIFO_IDCT_reset_m_if_Val, i32 3) nounwind, !dbg !1492 ; [debug line = 29:5]
  %sc_FIFO_IDCT_ssdm_1 = load i1* @sc_FIFO_IDCT_ssdm_thread_M_Prc2, align 1, !dbg !1493 ; [#uses=1 type=i1] [debug line = 30:5]
  br i1 %sc_FIFO_IDCT_ssdm_1, label %3, label %4, !dbg !1493 ; [debug line = 30:5]

; <label>:3                                       ; preds = %2
  call void @"sc_FIFO_IDCT::Prc2"(i1* %sc_FIFO_IDCT_clock_m_if_Val, i1* %sc_FIFO_IDCT_reset_m_if_Val, i1* %sc_FIFO_IDCT_start_m_if_Val, i1* %sc_FIFO_IDCT_done_m_if_Val, i8* %sc_FIFO_IDCT_dout_m_if_Val_V, i8* %sc_FIFO_IDCT_din_m_if_Val_V, [100 x i32]* %sc_FIFO_IDCT_mA, [100 x i32]* %sc_FIFO_IDCT_mB, i1* %sc_FIFO_IDCT_write_done, i32* %sc_FIFO_IDCT_exec_cnt), !dbg !1494 ; [debug line = 30:31]
  br label %UnifiedUnreachableBlock

; <label>:4                                       ; preds = %2
  call void (...)* @_ssdm_op_SpecProcessDecl([13 x i8]* @p_str, i32 2, [5 x i8]* @p_str18) nounwind, !dbg !1495 ; [debug line = 30:39]
  call void (...)* @_ssdm_op_SpecSensitive([5 x i8]* @p_str18, [6 x i8]* @p_str2, i1* %sc_FIFO_IDCT_clock_m_if_Val, i32 1) nounwind, !dbg !1496 ; [debug line = 31:5]
  call void (...)* @_ssdm_op_SpecSensitive([5 x i8]* @p_str18, [6 x i8]* @p_str3, i1* %sc_FIFO_IDCT_reset_m_if_Val, i32 3) nounwind, !dbg !1497 ; [debug line = 32:5]
  call void (...)* @_ssdm_op_SpecPort([13 x i8]* @p_str, i32 0, [7 x i8]* @p_str1, [6 x i8]* @p_str2, i32 0, i32 0, i1* %sc_FIFO_IDCT_clock_m_if_Val) nounwind, !dbg !1498 ; [debug line = 33:5]
  call void (...)* @_ssdm_op_SpecPort([13 x i8]* @p_str, i32 0, [7 x i8]* @p_str1, [6 x i8]* @p_str3, i32 0, i32 0, i1* %sc_FIFO_IDCT_reset_m_if_Val) nounwind, !dbg !1499 ; [debug line = 34:5]
  call void (...)* @_ssdm_op_SpecPort([13 x i8]* @p_str, i32 0, [7 x i8]* @p_str1, [6 x i8]* @p_str4, i32 0, i32 0, i1* %sc_FIFO_IDCT_start_m_if_Val) nounwind, !dbg !1500 ; [debug line = 35:5]
  call void (...)* @_ssdm_op_SpecPort([13 x i8]* @p_str, i32 1, [7 x i8]* @p_str1, [5 x i8]* @p_str5, i32 0, i32 0, i1* %sc_FIFO_IDCT_done_m_if_Val) nounwind, !dbg !1501 ; [debug line = 36:5]
  call void (...)* @_ssdm_op_SpecInterface(i8* %sc_FIFO_IDCT_dout_m_if_Val_V, [8 x i8]* @p_str6, i32 0, i32 0, [1 x i8]* @p_str7, i32 0, i32 0, [1 x i8]* @p_str7, [1 x i8]* @p_str7, [1 x i8]* @p_str7, i32 0, i32 0, i32 0, i32 0, [1 x i8]* @p_str7, [1 x i8]* @p_str7) nounwind, !dbg !1502 ; [debug line = 37:5]
  call void (...)* @_ssdm_op_SpecPort([13 x i8]* @p_str, i32 5, [13 x i8]* @p_str24, [5 x i8]* @p_str11, i32 0, i32 0, i8* %sc_FIFO_IDCT_dout_m_if_Val_V) nounwind, !dbg !1503 ; [debug line = 38:5]
  call void (...)* @_ssdm_op_SpecInterface(i8* %sc_FIFO_IDCT_din_m_if_Val_V, [8 x i8]* @p_str6, i32 0, i32 0, [1 x i8]* @p_str7, i32 0, i32 0, [1 x i8]* @p_str7, [1 x i8]* @p_str7, [1 x i8]* @p_str7, i32 0, i32 0, i32 0, i32 0, [1 x i8]* @p_str7, [1 x i8]* @p_str7) nounwind, !dbg !1504 ; [debug line = 39:5]
  call void (...)* @_ssdm_op_SpecPort([13 x i8]* @p_str, i32 4, [13 x i8]* @p_str24, [4 x i8]* @p_str12, i32 0, i32 0, i8* %sc_FIFO_IDCT_din_m_if_Val_V) nounwind, !dbg !1505 ; [debug line = 40:5]
  call void @_ssdm_op_Write.ap_auto.i32P(i32* %sc_FIFO_IDCT_exec_cnt, i32 0), !dbg !1506 ; [debug line = 41:3]
  call void @_ssdm_op_Write.ap_auto.i1P(i1* %sc_FIFO_IDCT_write_done, i1 false), !dbg !1507 ; [debug line = 42:3]
  ret void, !dbg !1508                            ; [debug line = 42:1]

UnifiedUnreachableBlock:                          ; preds = %3, %1
  unreachable
}

; [#uses=1]
define void @"sc_FIFO_IDCT::Prc2"(i1* %sc_FIFO_IDCT_clock_m_if_Val, i1* %sc_FIFO_IDCT_reset_m_if_Val, i1* %sc_FIFO_IDCT_start_m_if_Val, i1* %sc_FIFO_IDCT_done_m_if_Val, i8* %sc_FIFO_IDCT_dout_m_if_Val_V, i8* %sc_FIFO_IDCT_din_m_if_Val_V, [100 x i32]* %sc_FIFO_IDCT_mA, [100 x i32]* %sc_FIFO_IDCT_mB, i1* %sc_FIFO_IDCT_write_done, i32* %sc_FIFO_IDCT_exec_cnt) {
_ZN7_ap_sc_7sc_core4waitEi.exit2:
  call void (...)* @_ssdm_op_SpecBitsMap(i1* %sc_FIFO_IDCT_clock_m_if_Val), !map !294
  call void (...)* @_ssdm_op_SpecBitsMap(i1* %sc_FIFO_IDCT_reset_m_if_Val), !map !298
  call void (...)* @_ssdm_op_SpecBitsMap(i1* %sc_FIFO_IDCT_start_m_if_Val), !map !302
  call void (...)* @_ssdm_op_SpecBitsMap(i1* %sc_FIFO_IDCT_done_m_if_Val), !map !306
  call void (...)* @_ssdm_op_SpecBitsMap(i8* %sc_FIFO_IDCT_dout_m_if_Val_V), !map !310
  call void (...)* @_ssdm_op_SpecBitsMap(i8* %sc_FIFO_IDCT_din_m_if_Val_V), !map !314
  call void (...)* @_ssdm_op_SpecBitsMap([100 x i32]* %sc_FIFO_IDCT_mA), !map !318
  call void (...)* @_ssdm_op_SpecBitsMap([100 x i32]* %sc_FIFO_IDCT_mB), !map !322
  call void (...)* @_ssdm_op_SpecBitsMap(i1* %sc_FIFO_IDCT_write_done), !map !326
  call void (...)* @_ssdm_op_SpecBitsMap(i32* %sc_FIFO_IDCT_exec_cnt), !map !330
  %a = alloca [64 x i32], align 4                 ; [#uses=2 type=[64 x i32]*]
  call void @llvm.dbg.value(metadata !{i1* %sc_FIFO_IDCT_clock_m_if_Val}, i64 0, metadata !1509), !dbg !1513 ; [debug line = 62:20] [debug variable = sc_FIFO_IDCT.clock.m_if.Val]
  call void @llvm.dbg.value(metadata !{i1* %sc_FIFO_IDCT_reset_m_if_Val}, i64 0, metadata !1514), !dbg !1513 ; [debug line = 62:20] [debug variable = sc_FIFO_IDCT.reset.m_if.Val]
  call void @llvm.dbg.value(metadata !{i1* %sc_FIFO_IDCT_start_m_if_Val}, i64 0, metadata !1515), !dbg !1513 ; [debug line = 62:20] [debug variable = sc_FIFO_IDCT.start.m_if.Val]
  call void @llvm.dbg.value(metadata !{i1* %sc_FIFO_IDCT_done_m_if_Val}, i64 0, metadata !1516), !dbg !1513 ; [debug line = 62:20] [debug variable = sc_FIFO_IDCT.done.m_if.Val]
  call void @llvm.dbg.value(metadata !{i8* %sc_FIFO_IDCT_dout_m_if_Val_V}, i64 0, metadata !1517), !dbg !1513 ; [debug line = 62:20] [debug variable = sc_FIFO_IDCT.dout.m_if.Val.V]
  call void @llvm.dbg.value(metadata !{i8* %sc_FIFO_IDCT_din_m_if_Val_V}, i64 0, metadata !1518), !dbg !1513 ; [debug line = 62:20] [debug variable = sc_FIFO_IDCT.din.m_if.Val.V]
  call void @llvm.dbg.value(metadata !{[100 x i32]* %sc_FIFO_IDCT_mA}, i64 0, metadata !1519), !dbg !1513 ; [debug line = 62:20] [debug variable = sc_FIFO_IDCT.mA]
  call void @llvm.dbg.value(metadata !{[100 x i32]* %sc_FIFO_IDCT_mB}, i64 0, metadata !1520), !dbg !1513 ; [debug line = 62:20] [debug variable = sc_FIFO_IDCT.mB]
  call void @llvm.dbg.value(metadata !{i1* %sc_FIFO_IDCT_write_done}, i64 0, metadata !1521), !dbg !1513 ; [debug line = 62:20] [debug variable = sc_FIFO_IDCT.write_done]
  call void @llvm.dbg.value(metadata !{i32* %sc_FIFO_IDCT_exec_cnt}, i64 0, metadata !1522), !dbg !1513 ; [debug line = 62:20] [debug variable = sc_FIFO_IDCT.exec_cnt]
  call void (...)* @_ssdm_op_SpecPort([13 x i8]* @p_str, i32 0, [7 x i8]* @p_str1, [6 x i8]* @p_str2, i32 0, i32 0, i1* %sc_FIFO_IDCT_clock_m_if_Val) nounwind, !dbg !1523 ; [debug line = 63:4]
  call void (...)* @_ssdm_op_SpecPort([13 x i8]* @p_str, i32 0, [7 x i8]* @p_str1, [6 x i8]* @p_str3, i32 0, i32 0, i1* %sc_FIFO_IDCT_reset_m_if_Val) nounwind, !dbg !1525 ; [debug line = 64:3]
  call void (...)* @_ssdm_op_SpecPort([13 x i8]* @p_str, i32 0, [7 x i8]* @p_str1, [6 x i8]* @p_str4, i32 0, i32 0, i1* %sc_FIFO_IDCT_start_m_if_Val) nounwind, !dbg !1526 ; [debug line = 65:3]
  call void (...)* @_ssdm_op_SpecPort([13 x i8]* @p_str, i32 1, [7 x i8]* @p_str1, [5 x i8]* @p_str5, i32 0, i32 0, i1* %sc_FIFO_IDCT_done_m_if_Val) nounwind, !dbg !1527 ; [debug line = 66:3]
  call void (...)* @_ssdm_op_SpecInterface(i8* %sc_FIFO_IDCT_dout_m_if_Val_V, [8 x i8]* @p_str6, i32 0, i32 0, [1 x i8]* @p_str7, i32 0, i32 0, [1 x i8]* @p_str7, [1 x i8]* @p_str7, [1 x i8]* @p_str7, i32 0, i32 0, i32 0, i32 0, [1 x i8]* @p_str7, [1 x i8]* @p_str7) nounwind, !dbg !1528 ; [debug line = 67:3]
  call void (...)* @_ssdm_op_SpecInterface(i8* %sc_FIFO_IDCT_din_m_if_Val_V, [8 x i8]* @p_str6, i32 0, i32 0, [1 x i8]* @p_str7, i32 0, i32 0, [1 x i8]* @p_str7, [1 x i8]* @p_str7, [1 x i8]* @p_str7, i32 0, i32 0, i32 0, i32 0, [1 x i8]* @p_str7, [1 x i8]* @p_str7) nounwind, !dbg !1529 ; [debug line = 68:3]
  call void (...)* @_ssdm_op_SpecProcessDef([13 x i8]* @p_str, i32 2, [5 x i8]* @p_str18) nounwind, !dbg !1530 ; [debug line = 69:3]
  %tmp = call i32 (...)* @_ssdm_op_SpecRegionBegin([15 x i8]* @p_str9), !dbg !1531 ; [#uses=1 type=i32] [debug line = 69:108]
  call void (...)* @_ssdm_op_SpecProtocol(i32 1, [1 x i8]* @p_str7) nounwind, !dbg !1532 ; [debug line = 69:192]
  %p_ssdm_reset_v = call i32 (...)* @_ssdm_op_SpecStateBegin(i32 0, i32 0, i32 1) nounwind, !dbg !1533 ; [#uses=1 type=i32] [debug line = 69:242]
  call void @llvm.dbg.value(metadata !{i32 %p_ssdm_reset_v}, i64 0, metadata !1534), !dbg !1533 ; [debug line = 69:242] [debug variable = _ssdm_reset_v]
  call void @llvm.dbg.value(metadata !{i1* %sc_FIFO_IDCT_done_m_if_Val}, i64 0, metadata !1535), !dbg !1542 ; [debug line = 128:96@207:13@446:81@65:1] [debug variable = P]
  call void @_ssdm_op_Write.ap_auto.volatile.i1P(i1* %sc_FIFO_IDCT_done_m_if_Val, i1 false), !dbg !1556 ; [debug line = 167:116@207:13@446:81@65:1]
  call void @llvm.dbg.declare(metadata !{[64 x i32]* %a}, metadata !1559), !dbg !1563 ; [debug line = 66:5] [debug variable = a]
  %empty = call i32 (...)* @_ssdm_op_SpecStateEnd(i32 %p_ssdm_reset_v) nounwind, !dbg !1564 ; [#uses=0 type=i32] [debug line = 69:13]
  %empty_6 = call i32 (...)* @_ssdm_op_SpecRegionEnd([15 x i8]* @p_str9, i32 %tmp), !dbg !1565 ; [#uses=0 type=i32] [debug line = 69:51]
  call void (...)* @_ssdm_op_Wait(i32 1) nounwind, !dbg !1566 ; [debug line = 803:19@71:1]
  br label %0, !dbg !1573                         ; [debug line = 72:5]

; <label>:0                                       ; preds = %_ZN7_ap_sc_7sc_core4waitEi.exit, %_ZN7_ap_sc_7sc_core4waitEi.exit2
  %loop_begin = call i32 (...)* @_ssdm_op_SpecLoopBegin() nounwind ; [#uses=0 type=i32]
  call void (...)* @_ssdm_op_Wait(i32 1) nounwind, !dbg !1574 ; [debug line = 77:7]
  %sc_FIFO_IDCT_write_d = call i1 @_ssdm_op_Read.ap_auto.i1P(i1* %sc_FIFO_IDCT_write_done), !dbg !1577 ; [#uses=1 type=i1] [debug line = 77:49]
  call void (...)* @_ssdm_op_Poll(i1 %sc_FIFO_IDCT_write_d), !dbg !1578 ; [debug line = 77:51]
  br label %.loopexit, !dbg !1579                 ; [debug line = 79:9]

.loopexit.loopexit:                               ; preds = %.preheader
  br label %.loopexit

.loopexit:                                        ; preds = %.loopexit.loopexit, %0
  %i0 = phi i4 [ 0, %0 ], [ %i0_1, %.loopexit.loopexit ] ; [#uses=3 type=i4]
  %i0_cast5 = zext i4 %i0 to i6, !dbg !1579       ; [#uses=4 type=i6] [debug line = 79:9]
  %exitcond1 = icmp eq i4 %i0, -8, !dbg !1579     ; [#uses=1 type=i1] [debug line = 79:9]
  %empty_7 = call i32 (...)* @_ssdm_op_SpecLoopTripCount(i64 8, i64 8, i64 8) ; [#uses=0 type=i32]
  %i0_1 = add i4 %i0, 1, !dbg !1581               ; [#uses=1 type=i4] [debug line = 79:25]
  call void @llvm.dbg.value(metadata !{i4 %i0_1}, i64 0, metadata !1582), !dbg !1581 ; [debug line = 79:25] [debug variable = i0]
  br i1 %exitcond1, label %_ZN7_ap_sc_7sc_core4waitEi.exit, label %.preheader35.preheader, !dbg !1579 ; [debug line = 79:9]

.preheader35.preheader:                           ; preds = %.loopexit
  br label %.preheader35, !dbg !1583              ; [debug line = 80:10]

.preheader35.loopexit:                            ; preds = %2
  br label %.preheader35

.preheader35:                                     ; preds = %.preheader35.loopexit, %.preheader35.preheader
  %i1 = phi i4 [ %i1_2, %.preheader35.loopexit ], [ 0, %.preheader35.preheader ] ; [#uses=3 type=i4]
  %exitcond2 = icmp eq i4 %i1, -8, !dbg !1583     ; [#uses=1 type=i1] [debug line = 80:10]
  %empty_8 = call i32 (...)* @_ssdm_op_SpecLoopTripCount(i64 8, i64 8, i64 8) ; [#uses=0 type=i32]
  %i1_2 = add i4 %i1, 1, !dbg !1586               ; [#uses=1 type=i4] [debug line = 80:26]
  call void @llvm.dbg.value(metadata !{i4 %i1_2}, i64 0, metadata !1587), !dbg !1586 ; [debug line = 80:26] [debug variable = i1]
  br i1 %exitcond2, label %.preheader.preheader, label %1, !dbg !1583 ; [debug line = 80:10]

.preheader.preheader:                             ; preds = %.preheader35
  br label %.preheader, !dbg !1588                ; [debug line = 86:10]

; <label>:1                                       ; preds = %.preheader35
  %tmp_20 = trunc i4 %i1 to i3                    ; [#uses=1 type=i3]
  %tmp_1 = call i6 @_ssdm_op_BitConcatenate.i6.i3.i3(i3 %tmp_20, i3 0), !dbg !1590 ; [#uses=2 type=i6] [debug line = 81:6]
  %tmp_2 = add i6 %i0_cast5, %tmp_1, !dbg !1590   ; [#uses=1 type=i6] [debug line = 81:6]
  %tmp_2_cast = zext i6 %tmp_2 to i32, !dbg !1590 ; [#uses=1 type=i32] [debug line = 81:6]
  %a_addr = getelementptr inbounds [64 x i32]* %a, i32 0, i32 %tmp_2_cast, !dbg !1590 ; [#uses=1 type=i32*] [debug line = 81:6]
  br label %2, !dbg !1592                         ; [debug line = 82:11]

; <label>:2                                       ; preds = %3, %1
  %a_load = phi i32 [ 0, %1 ], [ %tmp_s, %3 ]     ; [#uses=2 type=i32]
  %i2 = phi i4 [ 0, %1 ], [ %i2_2, %3 ]           ; [#uses=4 type=i4]
  store i32 %a_load, i32* %a_addr, align 4, !dbg !1594 ; [debug line = 83:7]
  %i2_cast3 = zext i4 %i2 to i6, !dbg !1592       ; [#uses=1 type=i6] [debug line = 82:11]
  %exitcond4 = icmp eq i4 %i2, -8, !dbg !1592     ; [#uses=1 type=i1] [debug line = 82:11]
  %empty_9 = call i32 (...)* @_ssdm_op_SpecLoopTripCount(i64 8, i64 8, i64 8) ; [#uses=0 type=i32]
  %i2_2 = add i4 %i2, 1, !dbg !1596               ; [#uses=1 type=i4] [debug line = 82:27]
  br i1 %exitcond4, label %.preheader35.loopexit, label %3, !dbg !1592 ; [debug line = 82:11]

; <label>:3                                       ; preds = %2
  %tmp_22 = trunc i4 %i2 to i3                    ; [#uses=1 type=i3]
  %tmp_7 = call i6 @_ssdm_op_BitConcatenate.i6.i3.i3(i3 %tmp_22, i3 0), !dbg !1594 ; [#uses=1 type=i6] [debug line = 83:7]
  %tmp_8 = add i6 %i0_cast5, %tmp_7, !dbg !1594   ; [#uses=1 type=i6] [debug line = 83:7]
  %tmp_8_cast = zext i6 %tmp_8 to i32, !dbg !1594 ; [#uses=1 type=i32] [debug line = 83:7]
  %b_a_addr = getelementptr [64 x i8]* @b_a, i32 0, i32 %tmp_8_cast, !dbg !1594 ; [#uses=1 type=i8*] [debug line = 83:7]
  %b_a_load = load i8* %b_a_addr, align 1, !dbg !1594 ; [#uses=1 type=i8] [debug line = 83:7]
  %b_a_load_cast = sext i8 %b_a_load to i32, !dbg !1594 ; [#uses=1 type=i32] [debug line = 83:7]
  %tmp_9 = add i6 %tmp_1, %i2_cast3, !dbg !1594   ; [#uses=1 type=i6] [debug line = 83:7]
  %tmp_9_cast = zext i6 %tmp_9 to i32, !dbg !1594 ; [#uses=1 type=i32] [debug line = 83:7]
  %sc_FIFO_IDCT_mA_addr = getelementptr [100 x i32]* %sc_FIFO_IDCT_mA, i32 0, i32 %tmp_9_cast, !dbg !1594 ; [#uses=1 type=i32*] [debug line = 83:7]
  %sc_FIFO_IDCT_mA_load = load i32* %sc_FIFO_IDCT_mA_addr, align 4, !dbg !1594 ; [#uses=1 type=i32] [debug line = 83:7]
  %tmp_23 = shl i32 %sc_FIFO_IDCT_mA_load, 3, !dbg !1594 ; [#uses=1 type=i32] [debug line = 83:7]
  %tmp_3 = add i32 -1016, %tmp_23, !dbg !1594     ; [#uses=1 type=i32] [debug line = 83:7]
  %tmp_6 = mul nsw i32 %tmp_3, %b_a_load_cast, !dbg !1594 ; [#uses=1 type=i32] [debug line = 83:7]
  %tmp_s = add nsw i32 %tmp_6, %a_load, !dbg !1594 ; [#uses=1 type=i32] [debug line = 83:7]
  call void @llvm.dbg.value(metadata !{i4 %i2_2}, i64 0, metadata !1597), !dbg !1596 ; [debug line = 82:27] [debug variable = i2]
  br label %2, !dbg !1596                         ; [debug line = 82:27]

.preheader:                                       ; preds = %7, %.preheader.preheader
  %i1_1 = phi i4 [ %i1_3, %7 ], [ 0, %.preheader.preheader ] ; [#uses=3 type=i4]
  %exitcond3 = icmp eq i4 %i1_1, -8, !dbg !1588   ; [#uses=1 type=i1] [debug line = 86:10]
  %empty_10 = call i32 (...)* @_ssdm_op_SpecLoopTripCount(i64 8, i64 8, i64 8) ; [#uses=0 type=i32]
  %i1_3 = add i4 %i1_1, 1, !dbg !1598             ; [#uses=1 type=i4] [debug line = 86:26]
  br i1 %exitcond3, label %.loopexit.loopexit, label %4, !dbg !1588 ; [debug line = 86:10]

; <label>:4                                       ; preds = %.preheader
  %tmp_21 = trunc i4 %i1_1 to i3                  ; [#uses=1 type=i3]
  %tmp_4 = call i6 @_ssdm_op_BitConcatenate.i6.i3.i3(i3 %tmp_21, i3 0), !dbg !1599 ; [#uses=2 type=i6] [debug line = 87:6]
  %tmp_5 = add i6 %i0_cast5, %tmp_4, !dbg !1599   ; [#uses=1 type=i6] [debug line = 87:6]
  %tmp_5_cast = zext i6 %tmp_5 to i32, !dbg !1599 ; [#uses=1 type=i32] [debug line = 87:6]
  %sc_FIFO_IDCT_mB_addr = getelementptr [100 x i32]* %sc_FIFO_IDCT_mB, i32 0, i32 %tmp_5_cast, !dbg !1599 ; [#uses=1 type=i32*] [debug line = 87:6]
  br label %5, !dbg !1601                         ; [debug line = 88:11]

; <label>:5                                       ; preds = %6, %4
  %sc_FIFO_IDCT_mB_load_1 = phi i32 [ 0, %4 ], [ %tmp_15, %6 ] ; [#uses=5 type=i32]
  %i2_1 = phi i4 [ 0, %4 ], [ %i2_3, %6 ]         ; [#uses=4 type=i4]
  store i32 %sc_FIFO_IDCT_mB_load_1, i32* %sc_FIFO_IDCT_mB_addr, align 4, !dbg !1603 ; [debug line = 89:7]
  %i2_1_cast1 = zext i4 %i2_1 to i6, !dbg !1601   ; [#uses=1 type=i6] [debug line = 88:11]
  %exitcond = icmp eq i4 %i2_1, -8, !dbg !1601    ; [#uses=1 type=i1] [debug line = 88:11]
  %empty_11 = call i32 (...)* @_ssdm_op_SpecLoopTripCount(i64 8, i64 8, i64 8) ; [#uses=0 type=i32]
  %i2_3 = add i4 %i2_1, 1, !dbg !1605             ; [#uses=1 type=i4] [debug line = 88:27]
  br i1 %exitcond, label %7, label %6, !dbg !1601 ; [debug line = 88:11]

; <label>:6                                       ; preds = %5
  %tmp_25 = trunc i4 %i2_1 to i3                  ; [#uses=1 type=i3]
  %tmp_11 = call i6 @_ssdm_op_BitConcatenate.i6.i3.i3(i3 %tmp_25, i3 0), !dbg !1603 ; [#uses=1 type=i6] [debug line = 89:7]
  %tmp_12 = add i6 %i0_cast5, %tmp_11, !dbg !1603 ; [#uses=1 type=i6] [debug line = 89:7]
  %tmp_12_cast = zext i6 %tmp_12 to i32, !dbg !1603 ; [#uses=1 type=i32] [debug line = 89:7]
  %a_addr_1 = getelementptr inbounds [64 x i32]* %a, i32 0, i32 %tmp_12_cast, !dbg !1603 ; [#uses=1 type=i32*] [debug line = 89:7]
  %a_load_1 = load i32* %a_addr_1, align 4, !dbg !1603 ; [#uses=1 type=i32] [debug line = 89:7]
  %tmp_13 = add i6 %tmp_4, %i2_1_cast1, !dbg !1603 ; [#uses=1 type=i6] [debug line = 89:7]
  %tmp_13_cast = zext i6 %tmp_13 to i32, !dbg !1603 ; [#uses=1 type=i32] [debug line = 89:7]
  %b_addr = getelementptr [64 x i8]* @b, i32 0, i32 %tmp_13_cast, !dbg !1603 ; [#uses=1 type=i8*] [debug line = 89:7]
  %b_load = load i8* %b_addr, align 1, !dbg !1603 ; [#uses=1 type=i8] [debug line = 89:7]
  %b_load_cast = sext i8 %b_load to i32, !dbg !1603 ; [#uses=1 type=i32] [debug line = 89:7]
  %tmp_14 = mul nsw i32 %a_load_1, %b_load_cast, !dbg !1603 ; [#uses=1 type=i32] [debug line = 89:7]
  %tmp_15 = add nsw i32 %tmp_14, %sc_FIFO_IDCT_mB_load_1, !dbg !1603 ; [#uses=1 type=i32] [debug line = 89:7]
  call void @llvm.dbg.value(metadata !{i4 %i2_3}, i64 0, metadata !1597), !dbg !1605 ; [debug line = 88:27] [debug variable = i2]
  br label %5, !dbg !1605                         ; [debug line = 88:27]

; <label>:7                                       ; preds = %5
  %tmp_24 = call i1 @_ssdm_op_BitSelect.i1.i32.i32(i32 %sc_FIFO_IDCT_mB_load_1, i32 31), !dbg !1606 ; [#uses=1 type=i1] [debug line = 91:6]
  %p_neg = sub i32 0, %sc_FIFO_IDCT_mB_load_1, !dbg !1606 ; [#uses=1 type=i32] [debug line = 91:6]
  %tmp_10 = call i8 @_ssdm_op_PartSelect.i8.i32.i32.i32(i32 %p_neg, i32 16, i32 23), !dbg !1606 ; [#uses=1 type=i8] [debug line = 91:6]
  %tmp_16 = sub i8 0, %tmp_10, !dbg !1606         ; [#uses=1 type=i8] [debug line = 91:6]
  %tmp_17 = call i8 @_ssdm_op_PartSelect.i8.i32.i32.i32(i32 %sc_FIFO_IDCT_mB_load_1, i32 16, i32 23), !dbg !1606 ; [#uses=1 type=i8] [debug line = 91:6]
  %tmp_18 = select i1 %tmp_24, i8 %tmp_16, i8 %tmp_17, !dbg !1606 ; [#uses=1 type=i8] [debug line = 91:6]
  call void @_ssdm_op_Write.ap_fifo.volatile.i8P(i8* %sc_FIFO_IDCT_dout_m_if_Val_V, i8 %tmp_18), !dbg !1607 ; [debug line = 365:13@56:100@257:73@504:72@91:6]
  call void @llvm.dbg.value(metadata !{i4 %i1_3}, i64 0, metadata !1587), !dbg !1598 ; [debug line = 86:26] [debug variable = i1]
  br label %.preheader, !dbg !1598                ; [debug line = 86:26]

_ZN7_ap_sc_7sc_core4waitEi.exit:                  ; preds = %.loopexit
  call void @llvm.dbg.value(metadata !{i1* %sc_FIFO_IDCT_done_m_if_Val}, i64 0, metadata !1535), !dbg !1625 ; [debug line = 128:96@207:13@446:81@95:7] [debug variable = P]
  call void @_ssdm_op_Write.ap_auto.volatile.i1P(i1* %sc_FIFO_IDCT_done_m_if_Val, i1 true), !dbg !1629 ; [debug line = 167:116@207:13@446:81@95:7]
  %sc_FIFO_IDCT_exec_cn = call i32 @_ssdm_op_Read.ap_auto.i32P(i32* %sc_FIFO_IDCT_exec_cnt), !dbg !1630 ; [#uses=1 type=i32] [debug line = 96:7]
  %sc_FIFO_IDCT_exec_cn_1 = add nsw i32 %sc_FIFO_IDCT_exec_cn, 1, !dbg !1630 ; [#uses=1 type=i32] [debug line = 96:7]
  call void @_ssdm_op_Write.ap_auto.i32P(i32* %sc_FIFO_IDCT_exec_cnt, i32 %sc_FIFO_IDCT_exec_cn_1), !dbg !1630 ; [debug line = 96:7]
  call void (...)* @_ssdm_op_Wait(i32 1) nounwind, !dbg !1631 ; [debug line = 803:19@97:7]
  br label %0, !dbg !1633                         ; [debug line = 99:4]
}

; [#uses=1]
define void @"sc_FIFO_IDCT::Prc1"(i1* %sc_FIFO_IDCT_clock_m_if_Val, i1* %sc_FIFO_IDCT_reset_m_if_Val, i1* %sc_FIFO_IDCT_start_m_if_Val, i1* %sc_FIFO_IDCT_done_m_if_Val, i8* %sc_FIFO_IDCT_dout_m_if_Val_V, i8* %sc_FIFO_IDCT_din_m_if_Val_V, [100 x i32]* %sc_FIFO_IDCT_mA, [100 x i32]* %sc_FIFO_IDCT_mB, i1* %sc_FIFO_IDCT_write_done, i32* %sc_FIFO_IDCT_exec_cnt) {
_ZN7_ap_sc_7sc_core4waitEi.exit:
  call void (...)* @_ssdm_op_SpecBitsMap(i1* %sc_FIFO_IDCT_clock_m_if_Val), !map !294
  call void (...)* @_ssdm_op_SpecBitsMap(i1* %sc_FIFO_IDCT_reset_m_if_Val), !map !298
  call void (...)* @_ssdm_op_SpecBitsMap(i1* %sc_FIFO_IDCT_start_m_if_Val), !map !302
  call void (...)* @_ssdm_op_SpecBitsMap(i1* %sc_FIFO_IDCT_done_m_if_Val), !map !306
  call void (...)* @_ssdm_op_SpecBitsMap(i8* %sc_FIFO_IDCT_dout_m_if_Val_V), !map !310
  call void (...)* @_ssdm_op_SpecBitsMap(i8* %sc_FIFO_IDCT_din_m_if_Val_V), !map !314
  call void (...)* @_ssdm_op_SpecBitsMap([100 x i32]* %sc_FIFO_IDCT_mA), !map !318
  call void (...)* @_ssdm_op_SpecBitsMap([100 x i32]* %sc_FIFO_IDCT_mB), !map !322
  call void (...)* @_ssdm_op_SpecBitsMap(i1* %sc_FIFO_IDCT_write_done), !map !326
  call void (...)* @_ssdm_op_SpecBitsMap(i32* %sc_FIFO_IDCT_exec_cnt), !map !330
  call void @llvm.dbg.value(metadata !{i1* %sc_FIFO_IDCT_clock_m_if_Val}, i64 0, metadata !1634), !dbg !1637 ; [debug line = 43:20] [debug variable = sc_FIFO_IDCT.clock.m_if.Val]
  call void @llvm.dbg.value(metadata !{i1* %sc_FIFO_IDCT_reset_m_if_Val}, i64 0, metadata !1638), !dbg !1637 ; [debug line = 43:20] [debug variable = sc_FIFO_IDCT.reset.m_if.Val]
  call void @llvm.dbg.value(metadata !{i1* %sc_FIFO_IDCT_start_m_if_Val}, i64 0, metadata !1639), !dbg !1637 ; [debug line = 43:20] [debug variable = sc_FIFO_IDCT.start.m_if.Val]
  call void @llvm.dbg.value(metadata !{i1* %sc_FIFO_IDCT_done_m_if_Val}, i64 0, metadata !1640), !dbg !1637 ; [debug line = 43:20] [debug variable = sc_FIFO_IDCT.done.m_if.Val]
  call void @llvm.dbg.value(metadata !{i8* %sc_FIFO_IDCT_dout_m_if_Val_V}, i64 0, metadata !1641), !dbg !1637 ; [debug line = 43:20] [debug variable = sc_FIFO_IDCT.dout.m_if.Val.V]
  call void @llvm.dbg.value(metadata !{i8* %sc_FIFO_IDCT_din_m_if_Val_V}, i64 0, metadata !1642), !dbg !1637 ; [debug line = 43:20] [debug variable = sc_FIFO_IDCT.din.m_if.Val.V]
  call void @llvm.dbg.value(metadata !{[100 x i32]* %sc_FIFO_IDCT_mA}, i64 0, metadata !1643), !dbg !1637 ; [debug line = 43:20] [debug variable = sc_FIFO_IDCT.mA]
  call void @llvm.dbg.value(metadata !{[100 x i32]* %sc_FIFO_IDCT_mB}, i64 0, metadata !1644), !dbg !1637 ; [debug line = 43:20] [debug variable = sc_FIFO_IDCT.mB]
  call void @llvm.dbg.value(metadata !{i1* %sc_FIFO_IDCT_write_done}, i64 0, metadata !1645), !dbg !1637 ; [debug line = 43:20] [debug variable = sc_FIFO_IDCT.write_done]
  call void @llvm.dbg.value(metadata !{i32* %sc_FIFO_IDCT_exec_cnt}, i64 0, metadata !1646), !dbg !1637 ; [debug line = 43:20] [debug variable = sc_FIFO_IDCT.exec_cnt]
  call void (...)* @_ssdm_op_SpecPort([13 x i8]* @p_str, i32 0, [7 x i8]* @p_str1, [6 x i8]* @p_str2, i32 0, i32 0, i1* %sc_FIFO_IDCT_clock_m_if_Val) nounwind, !dbg !1647 ; [debug line = 44:4]
  call void (...)* @_ssdm_op_SpecPort([13 x i8]* @p_str, i32 0, [7 x i8]* @p_str1, [6 x i8]* @p_str3, i32 0, i32 0, i1* %sc_FIFO_IDCT_reset_m_if_Val) nounwind, !dbg !1649 ; [debug line = 45:3]
  call void (...)* @_ssdm_op_SpecPort([13 x i8]* @p_str, i32 0, [7 x i8]* @p_str1, [6 x i8]* @p_str4, i32 0, i32 0, i1* %sc_FIFO_IDCT_start_m_if_Val) nounwind, !dbg !1650 ; [debug line = 46:3]
  call void (...)* @_ssdm_op_SpecPort([13 x i8]* @p_str, i32 1, [7 x i8]* @p_str1, [5 x i8]* @p_str5, i32 0, i32 0, i1* %sc_FIFO_IDCT_done_m_if_Val) nounwind, !dbg !1651 ; [debug line = 47:3]
  call void (...)* @_ssdm_op_SpecInterface(i8* %sc_FIFO_IDCT_dout_m_if_Val_V, [8 x i8]* @p_str6, i32 0, i32 0, [1 x i8]* @p_str7, i32 0, i32 0, [1 x i8]* @p_str7, [1 x i8]* @p_str7, [1 x i8]* @p_str7, i32 0, i32 0, i32 0, i32 0, [1 x i8]* @p_str7, [1 x i8]* @p_str7) nounwind, !dbg !1652 ; [debug line = 48:3]
  call void (...)* @_ssdm_op_SpecInterface(i8* %sc_FIFO_IDCT_din_m_if_Val_V, [8 x i8]* @p_str6, i32 0, i32 0, [1 x i8]* @p_str7, i32 0, i32 0, [1 x i8]* @p_str7, [1 x i8]* @p_str7, [1 x i8]* @p_str7, i32 0, i32 0, i32 0, i32 0, [1 x i8]* @p_str7, [1 x i8]* @p_str7) nounwind, !dbg !1653 ; [debug line = 49:3]
  call void (...)* @_ssdm_op_SpecProcessDef([13 x i8]* @p_str, i32 2, [5 x i8]* @p_str8) nounwind, !dbg !1654 ; [debug line = 50:3]
  %tmp_s = call i32 (...)* @_ssdm_op_SpecRegionBegin([15 x i8]* @p_str9), !dbg !1655 ; [#uses=1 type=i32] [debug line = 50:108]
  call void (...)* @_ssdm_op_SpecProtocol(i32 1, [1 x i8]* @p_str7) nounwind, !dbg !1656 ; [debug line = 50:192]
  %p_ssdm_reset_v = call i32 (...)* @_ssdm_op_SpecStateBegin(i32 0, i32 0, i32 1) nounwind, !dbg !1657 ; [#uses=1 type=i32] [debug line = 50:242]
  call void @llvm.dbg.value(metadata !{i32 %p_ssdm_reset_v}, i64 0, metadata !1658), !dbg !1657 ; [debug line = 50:242] [debug variable = _ssdm_reset_v]
  call void @_ssdm_op_Write.ap_auto.i1P(i1* %sc_FIFO_IDCT_write_done, i1 false), !dbg !1659 ; [debug line = 46:1]
  %empty = call i32 (...)* @_ssdm_op_SpecStateEnd(i32 %p_ssdm_reset_v) nounwind, !dbg !1660 ; [#uses=0 type=i32] [debug line = 46:21]
  %empty_12 = call i32 (...)* @_ssdm_op_SpecRegionEnd([15 x i8]* @p_str9, i32 %tmp_s), !dbg !1661 ; [#uses=0 type=i32] [debug line = 46:59]
  call void (...)* @_ssdm_op_Wait(i32 1) nounwind, !dbg !1662 ; [debug line = 803:19@48:1]
  br label %0, !dbg !1664                         ; [debug line = 49:5]

; <label>:0                                       ; preds = %_ZN7_ap_sc_7sc_core4waitEi.exit2, %_ZN7_ap_sc_7sc_core4waitEi.exit
  %loop_begin = call i32 (...)* @_ssdm_op_SpecLoopBegin() nounwind ; [#uses=0 type=i32]
  call void (...)* @_ssdm_op_Wait(i32 1) nounwind, !dbg !1665 ; [debug line = 51:10]
  call void @llvm.dbg.value(metadata !{i8* %sc_FIFO_IDCT_din_m_if_Val_V}, i64 0, metadata !1668), !dbg !1678 ; [debug line = 154:77@242:20@495:77@51:40] [debug variable = P.V]
  %empty_13 = call i1 @_ssdm_op_NbReadReq.ap_fifo.i8P(i8* %sc_FIFO_IDCT_din_m_if_Val_V, i32 1), !dbg !1686 ; [#uses=0 type=i1] [debug line = 97:12@242:20@495:77@51:40]
  call void (...)* @_ssdm_op_Poll(i1 false), !dbg !1688 ; [debug line = 51:67]
  br label %1, !dbg !1689                         ; [debug line = 53:18]

; <label>:1                                       ; preds = %2, %0
  %i = phi i7 [ 0, %0 ], [ %i_1, %2 ]             ; [#uses=3 type=i7]
  %i_cast1 = zext i7 %i to i32, !dbg !1689        ; [#uses=1 type=i32] [debug line = 53:18]
  %exitcond = icmp eq i7 %i, -64, !dbg !1689      ; [#uses=1 type=i1] [debug line = 53:18]
  %empty_14 = call i32 (...)* @_ssdm_op_SpecLoopTripCount(i64 64, i64 64, i64 64) ; [#uses=0 type=i32]
  %i_1 = add i7 %i, 1, !dbg !1691                 ; [#uses=1 type=i7] [debug line = 53:25]
  br i1 %exitcond, label %_ZN7_ap_sc_7sc_core4waitEi.exit2, label %2, !dbg !1689 ; [debug line = 53:18]

; <label>:2                                       ; preds = %1
  %val_V = call i8 @_ssdm_op_Read.ap_fifo.volatile.i8P(i8* %sc_FIFO_IDCT_din_m_if_Val_V), !dbg !1692 ; [#uses=1 type=i8] [debug line = 374:13@60:21@234:66@492:65@54:23]
  call void @llvm.dbg.value(metadata !{i8 %val_V}, i64 0, metadata !1708), !dbg !1692 ; [debug line = 374:13@60:21@234:66@492:65@54:23] [debug variable = val.V]
  %tmp = zext i8 %val_V to i32, !dbg !1707        ; [#uses=1 type=i32] [debug line = 54:23]
  %sc_FIFO_IDCT_mA_addr = getelementptr [100 x i32]* %sc_FIFO_IDCT_mA, i32 0, i32 %i_cast1, !dbg !1707 ; [#uses=1 type=i32*] [debug line = 54:23]
  store i32 %tmp, i32* %sc_FIFO_IDCT_mA_addr, align 4, !dbg !1707 ; [debug line = 54:23]
  call void @llvm.dbg.value(metadata !{i7 %i_1}, i64 0, metadata !1710), !dbg !1691 ; [debug line = 53:25] [debug variable = i]
  br label %1, !dbg !1691                         ; [debug line = 53:25]

_ZN7_ap_sc_7sc_core4waitEi.exit2:                 ; preds = %1
  call void (...)* @_ssdm_op_Wait(i32 1) nounwind, !dbg !1711 ; [debug line = 803:19@57:7]
  call void @_ssdm_op_Write.ap_auto.i1P(i1* %sc_FIFO_IDCT_write_done, i1 false), !dbg !1713 ; [debug line = 58:4]
  br label %0, !dbg !1714                         ; [debug line = 59:4]
}

; [#uses=0]
define weak void @"sc_FIFO_DCT::sc_FIFO_DCT"(i1* %sc_FIFO_DCT_clock_m_if_Val, i1* %sc_FIFO_DCT_reset_m_if_Val, i1* %sc_FIFO_DCT_start_m_if_Val, i1* %sc_FIFO_DCT_done_m_if_Val, i8* %sc_FIFO_DCT_dout_m_if_Val_V, i8* %sc_FIFO_DCT_din_m_if_Val_V, [100 x i32]* %sc_FIFO_DCT_mA, [100 x i32]* %sc_FIFO_DCT_mB, i1* %sc_FIFO_DCT_write_done, i32* %sc_FIFO_DCT_exec_cnt) {
  call void (...)* @_ssdm_op_SpecBitsMap(i1* %sc_FIFO_DCT_clock_m_if_Val), !map !1715
  call void (...)* @_ssdm_op_SpecBitsMap(i1* %sc_FIFO_DCT_reset_m_if_Val), !map !1719
  call void (...)* @_ssdm_op_SpecBitsMap(i1* %sc_FIFO_DCT_start_m_if_Val), !map !1723
  call void (...)* @_ssdm_op_SpecBitsMap(i1* %sc_FIFO_DCT_done_m_if_Val), !map !1727
  call void (...)* @_ssdm_op_SpecBitsMap(i8* %sc_FIFO_DCT_dout_m_if_Val_V), !map !1731
  call void (...)* @_ssdm_op_SpecBitsMap(i8* %sc_FIFO_DCT_din_m_if_Val_V), !map !1735
  call void (...)* @_ssdm_op_SpecBitsMap([100 x i32]* %sc_FIFO_DCT_mA), !map !1739
  call void (...)* @_ssdm_op_SpecBitsMap([100 x i32]* %sc_FIFO_DCT_mB), !map !1743
  call void (...)* @_ssdm_op_SpecBitsMap(i1* %sc_FIFO_DCT_write_done), !map !1747
  call void (...)* @_ssdm_op_SpecBitsMap(i32* %sc_FIFO_DCT_exec_cnt), !map !1751
  call void @llvm.dbg.value(metadata !{i1* %sc_FIFO_DCT_clock_m_if_Val}, i64 0, metadata !1755), !dbg !2713 ; [debug line = 24:3] [debug variable = sc_FIFO_DCT.clock.m_if.Val]
  call void @llvm.dbg.value(metadata !{i1* %sc_FIFO_DCT_reset_m_if_Val}, i64 0, metadata !2714), !dbg !2713 ; [debug line = 24:3] [debug variable = sc_FIFO_DCT.reset.m_if.Val]
  call void @llvm.dbg.value(metadata !{i1* %sc_FIFO_DCT_start_m_if_Val}, i64 0, metadata !2715), !dbg !2713 ; [debug line = 24:3] [debug variable = sc_FIFO_DCT.start.m_if.Val]
  call void @llvm.dbg.value(metadata !{i1* %sc_FIFO_DCT_done_m_if_Val}, i64 0, metadata !2716), !dbg !2713 ; [debug line = 24:3] [debug variable = sc_FIFO_DCT.done.m_if.Val]
  call void @llvm.dbg.value(metadata !{i8* %sc_FIFO_DCT_dout_m_if_Val_V}, i64 0, metadata !2727), !dbg !2713 ; [debug line = 24:3] [debug variable = sc_FIFO_DCT.dout.m_if.Val.V]
  call void @llvm.dbg.value(metadata !{i8* %sc_FIFO_DCT_din_m_if_Val_V}, i64 0, metadata !2743), !dbg !2713 ; [debug line = 24:3] [debug variable = sc_FIFO_DCT.din.m_if.Val.V]
  call void @llvm.dbg.value(metadata !{[100 x i32]* %sc_FIFO_DCT_mA}, i64 0, metadata !2752), !dbg !2713 ; [debug line = 24:3] [debug variable = sc_FIFO_DCT.mA]
  call void @llvm.dbg.value(metadata !{[100 x i32]* %sc_FIFO_DCT_mB}, i64 0, metadata !2756), !dbg !2713 ; [debug line = 24:3] [debug variable = sc_FIFO_DCT.mB]
  call void @llvm.dbg.value(metadata !{i1* %sc_FIFO_DCT_write_done}, i64 0, metadata !2760), !dbg !2713 ; [debug line = 24:3] [debug variable = sc_FIFO_DCT.write_done]
  call void @llvm.dbg.value(metadata !{i32* %sc_FIFO_DCT_exec_cnt}, i64 0, metadata !2764), !dbg !2713 ; [debug line = 24:3] [debug variable = sc_FIFO_DCT.exec_cnt]
  call void @llvm.dbg.value(metadata !{i8* %sc_FIFO_DCT_dout_m_if_Val_V}, i64 0, metadata !2768), !dbg !2771 ; [debug line = 502:18@25:2] [debug variable = sc_port_b<_ap_sc_::sc_core::sc_fifo_out_if<_ap_sc_::sc_dt::sc_uint<8> > >.m_if.Val.V]
  call void @llvm.dbg.value(metadata !{i8* %sc_FIFO_DCT_dout_m_if_Val_V}, i64 0, metadata !2772), !dbg !2775 ; [debug line = 502:18@502:34@25:2] [debug variable = sc_port_b<_ap_sc_::sc_core::sc_fifo_out_if<_ap_sc_::sc_dt::sc_uint<8> > >.m_if.Val.V]
  call void @llvm.dbg.value(metadata !{i8* %sc_FIFO_DCT_dout_m_if_Val_V}, i64 0, metadata !2776), !dbg !2780 ; [debug line = 252:47@285:68@502:32@502:34@25:2] [debug variable = sc_fifo_out_if<_ap_sc_::sc_dt::sc_uint<8> >.Val.V]
  call void @llvm.dbg.value(metadata !{i8* %sc_FIFO_DCT_dout_m_if_Val_V}, i64 0, metadata !2781), !dbg !2784 ; [debug line = 252:47@255:9@285:68@502:32@502:34@25:2] [debug variable = sc_fifo_out_if<_ap_sc_::sc_dt::sc_uint<8> >.Val.V]
  call void (...)* @_ssdm_op_SpecInterface(i8* %sc_FIFO_DCT_dout_m_if_Val_V, [8 x i8]* @p_str6, i32 0, i32 0, [1 x i8]* @p_str7, i32 0, i32 0, [1 x i8]* @p_str7, [1 x i8]* @p_str7, [1 x i8]* @p_str7, i32 0, i32 0, i32 0, i32 0, [1 x i8]* @p_str7, [1 x i8]* @p_str7) nounwind, !dbg !2785 ; [debug line = 253:13@255:9@285:68@502:32@502:34@25:2]
  call void (...)* @_ssdm_op_SpecPort([1 x i8]* @p_str7, i32 5, [1 x i8]* @p_str7, [1 x i8]* @p_str7, i32 0, i32 0, i8* %sc_FIFO_DCT_dout_m_if_Val_V) nounwind, !dbg !2786 ; [debug line = 254:13@255:9@285:68@502:32@502:34@25:2]
  call void @llvm.dbg.value(metadata !{i8* %sc_FIFO_DCT_din_m_if_Val_V}, i64 0, metadata !2787), !dbg !2789 ; [debug line = 490:18@25:2] [debug variable = sc_port_b<_ap_sc_::sc_core::sc_fifo_in_if<_ap_sc_::sc_dt::sc_uint<8> > >.m_if.Val.V]
  call void @llvm.dbg.value(metadata !{i8* %sc_FIFO_DCT_din_m_if_Val_V}, i64 0, metadata !2790), !dbg !2793 ; [debug line = 490:18@490:33@25:2] [debug variable = sc_port_b<_ap_sc_::sc_core::sc_fifo_in_if<_ap_sc_::sc_dt::sc_uint<8> > >.m_if.Val.V]
  call void @llvm.dbg.value(metadata !{i8* %sc_FIFO_DCT_din_m_if_Val_V}, i64 0, metadata !2794), !dbg !2798 ; [debug line = 229:47@285:68@490:31@490:33@25:2] [debug variable = sc_fifo_in_if<_ap_sc_::sc_dt::sc_uint<8> >.Val.V]
  call void @llvm.dbg.value(metadata !{i8* %sc_FIFO_DCT_din_m_if_Val_V}, i64 0, metadata !2799), !dbg !2802 ; [debug line = 229:47@232:9@285:68@490:31@490:33@25:2] [debug variable = sc_fifo_in_if<_ap_sc_::sc_dt::sc_uint<8> >.Val.V]
  call void (...)* @_ssdm_op_SpecInterface(i8* %sc_FIFO_DCT_din_m_if_Val_V, [8 x i8]* @p_str6, i32 0, i32 0, [1 x i8]* @p_str7, i32 0, i32 0, [1 x i8]* @p_str7, [1 x i8]* @p_str7, [1 x i8]* @p_str7, i32 0, i32 0, i32 0, i32 0, [1 x i8]* @p_str7, [1 x i8]* @p_str7) nounwind, !dbg !2803 ; [debug line = 230:12@232:9@285:68@490:31@490:33@25:2]
  call void (...)* @_ssdm_op_SpecPort([1 x i8]* @p_str7, i32 4, [1 x i8]* @p_str7, [1 x i8]* @p_str7, i32 0, i32 0, i8* %sc_FIFO_DCT_din_m_if_Val_V) nounwind, !dbg !2804 ; [debug line = 231:12@232:9@285:68@490:31@490:33@25:2]
  call void (...)* @_ssdm_op_SpecTopModule([12 x i8]* @p_str21, [12 x i8]* @p_str21) nounwind, !dbg !2805 ; [debug line = 26:5]
  %sc_FIFO_DCT_ssdm_s = load i1* @sc_FIFO_DCT_ssdm_thread_M_Prc1, align 1, !dbg !2807 ; [#uses=1 type=i1] [debug line = 27:5]
  br i1 %sc_FIFO_DCT_ssdm_s, label %1, label %2, !dbg !2807 ; [debug line = 27:5]

; <label>:1                                       ; preds = %0
  call void @"sc_FIFO_DCT::Prc1"(i1* %sc_FIFO_DCT_clock_m_if_Val, i1* %sc_FIFO_DCT_reset_m_if_Val, i1* %sc_FIFO_DCT_start_m_if_Val, i1* %sc_FIFO_DCT_done_m_if_Val, i8* %sc_FIFO_DCT_dout_m_if_Val_V, i8* %sc_FIFO_DCT_din_m_if_Val_V, [100 x i32]* %sc_FIFO_DCT_mA, [100 x i32]* %sc_FIFO_DCT_mB, i1* %sc_FIFO_DCT_write_done, i32* %sc_FIFO_DCT_exec_cnt), !dbg !2808 ; [debug line = 27:31]
  br label %UnifiedUnreachableBlock

; <label>:2                                       ; preds = %0
  call void (...)* @_ssdm_op_SpecProcessDecl([12 x i8]* @p_str21, i32 2, [5 x i8]* @p_str829) nounwind, !dbg !2809 ; [debug line = 27:39]
  call void (...)* @_ssdm_op_SpecSensitive([5 x i8]* @p_str829, [6 x i8]* @p_str223, i1* %sc_FIFO_DCT_clock_m_if_Val, i32 1) nounwind, !dbg !2810 ; [debug line = 28:5]
  call void (...)* @_ssdm_op_SpecSensitive([5 x i8]* @p_str829, [6 x i8]* @p_str324, i1* %sc_FIFO_DCT_reset_m_if_Val, i32 3) nounwind, !dbg !2811 ; [debug line = 29:5]
  %sc_FIFO_DCT_ssdm_1 = load i1* @sc_FIFO_DCT_ssdm_thread_M_Prc2, align 1, !dbg !2812 ; [#uses=1 type=i1] [debug line = 30:5]
  br i1 %sc_FIFO_DCT_ssdm_1, label %3, label %4, !dbg !2812 ; [debug line = 30:5]

; <label>:3                                       ; preds = %2
  call void @"sc_FIFO_DCT::Prc2"(i1* %sc_FIFO_DCT_clock_m_if_Val, i1* %sc_FIFO_DCT_reset_m_if_Val, i1* %sc_FIFO_DCT_start_m_if_Val, i1* %sc_FIFO_DCT_done_m_if_Val, i8* %sc_FIFO_DCT_dout_m_if_Val_V, i8* %sc_FIFO_DCT_din_m_if_Val_V, [100 x i32]* %sc_FIFO_DCT_mA, [100 x i32]* %sc_FIFO_DCT_mB, i1* %sc_FIFO_DCT_write_done, i32* %sc_FIFO_DCT_exec_cnt), !dbg !2813 ; [debug line = 30:31]
  br label %UnifiedUnreachableBlock

; <label>:4                                       ; preds = %2
  call void (...)* @_ssdm_op_SpecProcessDecl([12 x i8]* @p_str21, i32 2, [5 x i8]* @p_str1839) nounwind, !dbg !2814 ; [debug line = 30:39]
  call void (...)* @_ssdm_op_SpecSensitive([5 x i8]* @p_str1839, [6 x i8]* @p_str223, i1* %sc_FIFO_DCT_clock_m_if_Val, i32 1) nounwind, !dbg !2815 ; [debug line = 31:5]
  call void (...)* @_ssdm_op_SpecSensitive([5 x i8]* @p_str1839, [6 x i8]* @p_str324, i1* %sc_FIFO_DCT_reset_m_if_Val, i32 3) nounwind, !dbg !2816 ; [debug line = 32:5]
  call void (...)* @_ssdm_op_SpecPort([12 x i8]* @p_str21, i32 0, [7 x i8]* @p_str122, [6 x i8]* @p_str223, i32 0, i32 0, i1* %sc_FIFO_DCT_clock_m_if_Val) nounwind, !dbg !2817 ; [debug line = 33:5]
  call void (...)* @_ssdm_op_SpecPort([12 x i8]* @p_str21, i32 0, [7 x i8]* @p_str122, [6 x i8]* @p_str324, i32 0, i32 0, i1* %sc_FIFO_DCT_reset_m_if_Val) nounwind, !dbg !2818 ; [debug line = 34:5]
  call void (...)* @_ssdm_op_SpecPort([12 x i8]* @p_str21, i32 0, [7 x i8]* @p_str122, [6 x i8]* @p_str425, i32 0, i32 0, i1* %sc_FIFO_DCT_start_m_if_Val) nounwind, !dbg !2819 ; [debug line = 35:5]
  call void (...)* @_ssdm_op_SpecPort([12 x i8]* @p_str21, i32 1, [7 x i8]* @p_str122, [5 x i8]* @p_str526, i32 0, i32 0, i1* %sc_FIFO_DCT_done_m_if_Val) nounwind, !dbg !2820 ; [debug line = 36:5]
  call void (...)* @_ssdm_op_SpecInterface(i8* %sc_FIFO_DCT_dout_m_if_Val_V, [8 x i8]* @p_str627, i32 0, i32 0, [1 x i8]* @p_str728, i32 0, i32 0, [1 x i8]* @p_str728, [1 x i8]* @p_str728, [1 x i8]* @p_str728, i32 0, i32 0, i32 0, i32 0, [1 x i8]* @p_str728, [1 x i8]* @p_str728) nounwind, !dbg !2821 ; [debug line = 37:5]
  call void (...)* @_ssdm_op_SpecPort([12 x i8]* @p_str21, i32 5, [13 x i8]* @p_str2446, [5 x i8]* @p_str1132, i32 0, i32 0, i8* %sc_FIFO_DCT_dout_m_if_Val_V) nounwind, !dbg !2822 ; [debug line = 38:5]
  call void (...)* @_ssdm_op_SpecInterface(i8* %sc_FIFO_DCT_din_m_if_Val_V, [8 x i8]* @p_str627, i32 0, i32 0, [1 x i8]* @p_str728, i32 0, i32 0, [1 x i8]* @p_str728, [1 x i8]* @p_str728, [1 x i8]* @p_str728, i32 0, i32 0, i32 0, i32 0, [1 x i8]* @p_str728, [1 x i8]* @p_str728) nounwind, !dbg !2823 ; [debug line = 39:5]
  call void (...)* @_ssdm_op_SpecPort([12 x i8]* @p_str21, i32 4, [13 x i8]* @p_str2446, [4 x i8]* @p_str1233, i32 0, i32 0, i8* %sc_FIFO_DCT_din_m_if_Val_V) nounwind, !dbg !2824 ; [debug line = 40:5]
  call void @_ssdm_op_Write.ap_auto.i32P(i32* %sc_FIFO_DCT_exec_cnt, i32 0), !dbg !2825 ; [debug line = 41:3]
  call void @_ssdm_op_Write.ap_auto.i1P(i1* %sc_FIFO_DCT_write_done, i1 false), !dbg !2826 ; [debug line = 42:3]
  ret void, !dbg !2827                            ; [debug line = 41:1]

UnifiedUnreachableBlock:                          ; preds = %3, %1
  unreachable
}

; [#uses=1]
define void @"sc_FIFO_DCT::Prc2"(i1* %sc_FIFO_DCT_clock_m_if_Val, i1* %sc_FIFO_DCT_reset_m_if_Val, i1* %sc_FIFO_DCT_start_m_if_Val, i1* %sc_FIFO_DCT_done_m_if_Val, i8* %sc_FIFO_DCT_dout_m_if_Val_V, i8* %sc_FIFO_DCT_din_m_if_Val_V, [100 x i32]* %sc_FIFO_DCT_mA, [100 x i32]* %sc_FIFO_DCT_mB, i1* %sc_FIFO_DCT_write_done, i32* %sc_FIFO_DCT_exec_cnt) {
_ZN7_ap_sc_7sc_core4waitEi.exit2:
  call void (...)* @_ssdm_op_SpecBitsMap(i1* %sc_FIFO_DCT_clock_m_if_Val), !map !1715
  call void (...)* @_ssdm_op_SpecBitsMap(i1* %sc_FIFO_DCT_reset_m_if_Val), !map !1719
  call void (...)* @_ssdm_op_SpecBitsMap(i1* %sc_FIFO_DCT_start_m_if_Val), !map !1723
  call void (...)* @_ssdm_op_SpecBitsMap(i1* %sc_FIFO_DCT_done_m_if_Val), !map !1727
  call void (...)* @_ssdm_op_SpecBitsMap(i8* %sc_FIFO_DCT_dout_m_if_Val_V), !map !1731
  call void (...)* @_ssdm_op_SpecBitsMap(i8* %sc_FIFO_DCT_din_m_if_Val_V), !map !1735
  call void (...)* @_ssdm_op_SpecBitsMap([100 x i32]* %sc_FIFO_DCT_mA), !map !1739
  call void (...)* @_ssdm_op_SpecBitsMap([100 x i32]* %sc_FIFO_DCT_mB), !map !1743
  call void (...)* @_ssdm_op_SpecBitsMap(i1* %sc_FIFO_DCT_write_done), !map !1747
  call void (...)* @_ssdm_op_SpecBitsMap(i32* %sc_FIFO_DCT_exec_cnt), !map !1751
  %a = alloca [64 x i32], align 4                 ; [#uses=2 type=[64 x i32]*]
  call void @llvm.dbg.value(metadata !{i1* %sc_FIFO_DCT_clock_m_if_Val}, i64 0, metadata !2828), !dbg !2832 ; [debug line = 63:19] [debug variable = sc_FIFO_DCT.clock.m_if.Val]
  call void @llvm.dbg.value(metadata !{i1* %sc_FIFO_DCT_reset_m_if_Val}, i64 0, metadata !2833), !dbg !2832 ; [debug line = 63:19] [debug variable = sc_FIFO_DCT.reset.m_if.Val]
  call void @llvm.dbg.value(metadata !{i1* %sc_FIFO_DCT_start_m_if_Val}, i64 0, metadata !2834), !dbg !2832 ; [debug line = 63:19] [debug variable = sc_FIFO_DCT.start.m_if.Val]
  call void @llvm.dbg.value(metadata !{i1* %sc_FIFO_DCT_done_m_if_Val}, i64 0, metadata !2835), !dbg !2832 ; [debug line = 63:19] [debug variable = sc_FIFO_DCT.done.m_if.Val]
  call void @llvm.dbg.value(metadata !{i8* %sc_FIFO_DCT_dout_m_if_Val_V}, i64 0, metadata !2836), !dbg !2832 ; [debug line = 63:19] [debug variable = sc_FIFO_DCT.dout.m_if.Val.V]
  call void @llvm.dbg.value(metadata !{i8* %sc_FIFO_DCT_din_m_if_Val_V}, i64 0, metadata !2837), !dbg !2832 ; [debug line = 63:19] [debug variable = sc_FIFO_DCT.din.m_if.Val.V]
  call void @llvm.dbg.value(metadata !{[100 x i32]* %sc_FIFO_DCT_mA}, i64 0, metadata !2838), !dbg !2832 ; [debug line = 63:19] [debug variable = sc_FIFO_DCT.mA]
  call void @llvm.dbg.value(metadata !{[100 x i32]* %sc_FIFO_DCT_mB}, i64 0, metadata !2839), !dbg !2832 ; [debug line = 63:19] [debug variable = sc_FIFO_DCT.mB]
  call void @llvm.dbg.value(metadata !{i1* %sc_FIFO_DCT_write_done}, i64 0, metadata !2840), !dbg !2832 ; [debug line = 63:19] [debug variable = sc_FIFO_DCT.write_done]
  call void @llvm.dbg.value(metadata !{i32* %sc_FIFO_DCT_exec_cnt}, i64 0, metadata !2841), !dbg !2832 ; [debug line = 63:19] [debug variable = sc_FIFO_DCT.exec_cnt]
  call void (...)* @_ssdm_op_SpecPort([12 x i8]* @p_str21, i32 0, [7 x i8]* @p_str122, [6 x i8]* @p_str223, i32 0, i32 0, i1* %sc_FIFO_DCT_clock_m_if_Val) nounwind, !dbg !2842 ; [debug line = 64:4]
  call void (...)* @_ssdm_op_SpecPort([12 x i8]* @p_str21, i32 0, [7 x i8]* @p_str122, [6 x i8]* @p_str324, i32 0, i32 0, i1* %sc_FIFO_DCT_reset_m_if_Val) nounwind, !dbg !2844 ; [debug line = 65:3]
  call void (...)* @_ssdm_op_SpecPort([12 x i8]* @p_str21, i32 0, [7 x i8]* @p_str122, [6 x i8]* @p_str425, i32 0, i32 0, i1* %sc_FIFO_DCT_start_m_if_Val) nounwind, !dbg !2845 ; [debug line = 66:3]
  call void (...)* @_ssdm_op_SpecPort([12 x i8]* @p_str21, i32 1, [7 x i8]* @p_str122, [5 x i8]* @p_str526, i32 0, i32 0, i1* %sc_FIFO_DCT_done_m_if_Val) nounwind, !dbg !2846 ; [debug line = 67:3]
  call void (...)* @_ssdm_op_SpecInterface(i8* %sc_FIFO_DCT_dout_m_if_Val_V, [8 x i8]* @p_str627, i32 0, i32 0, [1 x i8]* @p_str728, i32 0, i32 0, [1 x i8]* @p_str728, [1 x i8]* @p_str728, [1 x i8]* @p_str728, i32 0, i32 0, i32 0, i32 0, [1 x i8]* @p_str728, [1 x i8]* @p_str728) nounwind, !dbg !2847 ; [debug line = 68:3]
  call void (...)* @_ssdm_op_SpecInterface(i8* %sc_FIFO_DCT_din_m_if_Val_V, [8 x i8]* @p_str627, i32 0, i32 0, [1 x i8]* @p_str728, i32 0, i32 0, [1 x i8]* @p_str728, [1 x i8]* @p_str728, [1 x i8]* @p_str728, i32 0, i32 0, i32 0, i32 0, [1 x i8]* @p_str728, [1 x i8]* @p_str728) nounwind, !dbg !2848 ; [debug line = 69:3]
  call void (...)* @_ssdm_op_SpecProcessDef([12 x i8]* @p_str21, i32 2, [5 x i8]* @p_str1839) nounwind, !dbg !2849 ; [debug line = 70:3]
  %tmp = call i32 (...)* @_ssdm_op_SpecRegionBegin([15 x i8]* @p_str930), !dbg !2850 ; [#uses=1 type=i32] [debug line = 70:107]
  call void (...)* @_ssdm_op_SpecProtocol(i32 1, [1 x i8]* @p_str728) nounwind, !dbg !2851 ; [debug line = 70:191]
  %p_ssdm_reset_v = call i32 (...)* @_ssdm_op_SpecStateBegin(i32 0, i32 0, i32 1) nounwind, !dbg !2852 ; [#uses=1 type=i32] [debug line = 70:241]
  call void @llvm.dbg.value(metadata !{i32 %p_ssdm_reset_v}, i64 0, metadata !2853), !dbg !2852 ; [debug line = 70:241] [debug variable = _ssdm_reset_v]
  call void @llvm.dbg.value(metadata !{i1* %sc_FIFO_DCT_done_m_if_Val}, i64 0, metadata !1535), !dbg !2854 ; [debug line = 128:96@207:13@446:81@66:1] [debug variable = P]
  call void @_ssdm_op_Write.ap_auto.volatile.i1P(i1* %sc_FIFO_DCT_done_m_if_Val, i1 false), !dbg !2858 ; [debug line = 167:116@207:13@446:81@66:1]
  call void @llvm.dbg.declare(metadata !{[64 x i32]* %a}, metadata !2859), !dbg !2860 ; [debug line = 67:5] [debug variable = a]
  %empty = call i32 (...)* @_ssdm_op_SpecStateEnd(i32 %p_ssdm_reset_v) nounwind, !dbg !2861 ; [#uses=0 type=i32] [debug line = 70:13]
  %empty_15 = call i32 (...)* @_ssdm_op_SpecRegionEnd([15 x i8]* @p_str930, i32 %tmp), !dbg !2862 ; [#uses=0 type=i32] [debug line = 70:51]
  call void (...)* @_ssdm_op_Wait(i32 1) nounwind, !dbg !2863 ; [debug line = 803:19@72:1]
  br label %0, !dbg !2865                         ; [debug line = 73:5]

; <label>:0                                       ; preds = %_ZN7_ap_sc_7sc_core4waitEi.exit, %_ZN7_ap_sc_7sc_core4waitEi.exit2
  %loop_begin = call i32 (...)* @_ssdm_op_SpecLoopBegin() nounwind ; [#uses=0 type=i32]
  call void (...)* @_ssdm_op_Wait(i32 1) nounwind, !dbg !2866 ; [debug line = 77:10]
  %sc_FIFO_DCT_write_do = call i1 @_ssdm_op_Read.ap_auto.i1P(i1* %sc_FIFO_DCT_write_done), !dbg !2869 ; [#uses=1 type=i1] [debug line = 77:52]
  call void (...)* @_ssdm_op_Poll(i1 %sc_FIFO_DCT_write_do), !dbg !2870 ; [debug line = 77:54]
  br label %.loopexit, !dbg !2871                 ; [debug line = 79:9]

.loopexit.loopexit:                               ; preds = %.preheader
  br label %.loopexit

.loopexit:                                        ; preds = %.loopexit.loopexit, %0
  %i0 = phi i4 [ 0, %0 ], [ %i0_2, %.loopexit.loopexit ] ; [#uses=3 type=i4]
  %i0_cast5 = zext i4 %i0 to i6, !dbg !2871       ; [#uses=4 type=i6] [debug line = 79:9]
  %exitcond5 = icmp eq i4 %i0, -8, !dbg !2871     ; [#uses=1 type=i1] [debug line = 79:9]
  %empty_16 = call i32 (...)* @_ssdm_op_SpecLoopTripCount(i64 8, i64 8, i64 8) ; [#uses=0 type=i32]
  %i0_2 = add i4 %i0, 1, !dbg !2873               ; [#uses=1 type=i4] [debug line = 79:25]
  call void @llvm.dbg.value(metadata !{i4 %i0_2}, i64 0, metadata !2874), !dbg !2873 ; [debug line = 79:25] [debug variable = i0]
  br i1 %exitcond5, label %_ZN7_ap_sc_7sc_core4waitEi.exit, label %.preheader35.preheader, !dbg !2871 ; [debug line = 79:9]

.preheader35.preheader:                           ; preds = %.loopexit
  br label %.preheader35, !dbg !2875              ; [debug line = 80:10]

.preheader35.loopexit:                            ; preds = %2
  br label %.preheader35

.preheader35:                                     ; preds = %.preheader35.loopexit, %.preheader35.preheader
  %i1 = phi i4 [ %i1_4, %.preheader35.loopexit ], [ 0, %.preheader35.preheader ] ; [#uses=3 type=i4]
  %exitcond6 = icmp eq i4 %i1, -8, !dbg !2875     ; [#uses=1 type=i1] [debug line = 80:10]
  %empty_17 = call i32 (...)* @_ssdm_op_SpecLoopTripCount(i64 8, i64 8, i64 8) ; [#uses=0 type=i32]
  %i1_4 = add i4 %i1, 1, !dbg !2878               ; [#uses=1 type=i4] [debug line = 80:26]
  call void @llvm.dbg.value(metadata !{i4 %i1_4}, i64 0, metadata !2879), !dbg !2878 ; [debug line = 80:26] [debug variable = i1]
  br i1 %exitcond6, label %.preheader.preheader, label %1, !dbg !2875 ; [debug line = 80:10]

.preheader.preheader:                             ; preds = %.preheader35
  br label %.preheader, !dbg !2880                ; [debug line = 86:10]

; <label>:1                                       ; preds = %.preheader35
  %tmp_33 = trunc i4 %i1 to i3                    ; [#uses=1 type=i3]
  %tmp_s = call i6 @_ssdm_op_BitConcatenate.i6.i3.i3(i3 %tmp_33, i3 0), !dbg !2882 ; [#uses=2 type=i6] [debug line = 81:6]
  %tmp_16 = add i6 %i0_cast5, %tmp_s, !dbg !2882  ; [#uses=1 type=i6] [debug line = 81:6]
  %tmp_16_cast = zext i6 %tmp_16 to i32, !dbg !2882 ; [#uses=1 type=i32] [debug line = 81:6]
  %a_addr = getelementptr inbounds [64 x i32]* %a, i32 0, i32 %tmp_16_cast, !dbg !2882 ; [#uses=1 type=i32*] [debug line = 81:6]
  br label %2, !dbg !2884                         ; [debug line = 82:11]

; <label>:2                                       ; preds = %3, %1
  %a_load = phi i32 [ 0, %1 ], [ %tmp_23, %3 ]    ; [#uses=2 type=i32]
  %i2 = phi i4 [ 0, %1 ], [ %i2_4, %3 ]           ; [#uses=4 type=i4]
  store i32 %a_load, i32* %a_addr, align 4, !dbg !2886 ; [debug line = 83:7]
  %i2_cast3 = zext i4 %i2 to i6, !dbg !2884       ; [#uses=1 type=i6] [debug line = 82:11]
  %exitcond8 = icmp eq i4 %i2, -8, !dbg !2884     ; [#uses=1 type=i1] [debug line = 82:11]
  %empty_18 = call i32 (...)* @_ssdm_op_SpecLoopTripCount(i64 8, i64 8, i64 8) ; [#uses=0 type=i32]
  %i2_4 = add i4 %i2, 1, !dbg !2888               ; [#uses=1 type=i4] [debug line = 82:27]
  br i1 %exitcond8, label %.preheader35.loopexit, label %3, !dbg !2884 ; [debug line = 82:11]

; <label>:3                                       ; preds = %2
  %tmp_35 = trunc i4 %i2 to i3                    ; [#uses=1 type=i3]
  %tmp_19 = call i6 @_ssdm_op_BitConcatenate.i6.i3.i3(i3 %tmp_35, i3 0), !dbg !2886 ; [#uses=1 type=i6] [debug line = 83:7]
  %tmp_20 = add i6 %i0_cast5, %tmp_19, !dbg !2886 ; [#uses=1 type=i6] [debug line = 83:7]
  %tmp_20_cast = zext i6 %tmp_20 to i32, !dbg !2886 ; [#uses=1 type=i32] [debug line = 83:7]
  %b_a_1_addr = getelementptr [64 x i8]* @b_a_1, i32 0, i32 %tmp_20_cast, !dbg !2886 ; [#uses=1 type=i8*] [debug line = 83:7]
  %b_a_1_load = load i8* %b_a_1_addr, align 1, !dbg !2886 ; [#uses=1 type=i8] [debug line = 83:7]
  %b_a_1_load_cast = sext i8 %b_a_1_load to i32, !dbg !2886 ; [#uses=1 type=i32] [debug line = 83:7]
  %tmp_21 = add i6 %tmp_s, %i2_cast3, !dbg !2886  ; [#uses=1 type=i6] [debug line = 83:7]
  %tmp_21_cast = zext i6 %tmp_21 to i32, !dbg !2886 ; [#uses=1 type=i32] [debug line = 83:7]
  %sc_FIFO_DCT_mA_addr = getelementptr [100 x i32]* %sc_FIFO_DCT_mA, i32 0, i32 %tmp_21_cast, !dbg !2886 ; [#uses=1 type=i32*] [debug line = 83:7]
  %sc_FIFO_DCT_mA_load = load i32* %sc_FIFO_DCT_mA_addr, align 4, !dbg !2886 ; [#uses=1 type=i32] [debug line = 83:7]
  %tmp_22 = mul nsw i32 %b_a_1_load_cast, %sc_FIFO_DCT_mA_load, !dbg !2886 ; [#uses=1 type=i32] [debug line = 83:7]
  %tmp_23 = add nsw i32 %tmp_22, %a_load, !dbg !2886 ; [#uses=1 type=i32] [debug line = 83:7]
  call void @llvm.dbg.value(metadata !{i4 %i2_4}, i64 0, metadata !2889), !dbg !2888 ; [debug line = 82:27] [debug variable = i2]
  br label %2, !dbg !2888                         ; [debug line = 82:27]

.preheader:                                       ; preds = %7, %.preheader.preheader
  %i1_1 = phi i4 [ %i1_5, %7 ], [ 0, %.preheader.preheader ] ; [#uses=3 type=i4]
  %exitcond7 = icmp eq i4 %i1_1, -8, !dbg !2880   ; [#uses=1 type=i1] [debug line = 86:10]
  %empty_19 = call i32 (...)* @_ssdm_op_SpecLoopTripCount(i64 8, i64 8, i64 8) ; [#uses=0 type=i32]
  %i1_5 = add i4 %i1_1, 1, !dbg !2890             ; [#uses=1 type=i4] [debug line = 86:26]
  br i1 %exitcond7, label %.loopexit.loopexit, label %4, !dbg !2880 ; [debug line = 86:10]

; <label>:4                                       ; preds = %.preheader
  %tmp_34 = trunc i4 %i1_1 to i3                  ; [#uses=1 type=i3]
  %tmp_17 = call i6 @_ssdm_op_BitConcatenate.i6.i3.i3(i3 %tmp_34, i3 0), !dbg !2891 ; [#uses=2 type=i6] [debug line = 87:6]
  %tmp_18 = add i6 %i0_cast5, %tmp_17, !dbg !2891 ; [#uses=1 type=i6] [debug line = 87:6]
  %tmp_18_cast = zext i6 %tmp_18 to i32, !dbg !2891 ; [#uses=1 type=i32] [debug line = 87:6]
  %sc_FIFO_DCT_mB_addr = getelementptr [100 x i32]* %sc_FIFO_DCT_mB, i32 0, i32 %tmp_18_cast, !dbg !2891 ; [#uses=1 type=i32*] [debug line = 87:6]
  br label %5, !dbg !2893                         ; [debug line = 88:11]

; <label>:5                                       ; preds = %6, %4
  %sc_FIFO_DCT_mB_load_1 = phi i32 [ 0, %4 ], [ %tmp_30, %6 ] ; [#uses=5 type=i32]
  %i2_1 = phi i4 [ 0, %4 ], [ %i2_5, %6 ]         ; [#uses=4 type=i4]
  store i32 %sc_FIFO_DCT_mB_load_1, i32* %sc_FIFO_DCT_mB_addr, align 4, !dbg !2895 ; [debug line = 89:7]
  %i2_1_cast1 = zext i4 %i2_1 to i6, !dbg !2893   ; [#uses=1 type=i6] [debug line = 88:11]
  %exitcond = icmp eq i4 %i2_1, -8, !dbg !2893    ; [#uses=1 type=i1] [debug line = 88:11]
  %empty_20 = call i32 (...)* @_ssdm_op_SpecLoopTripCount(i64 8, i64 8, i64 8) ; [#uses=0 type=i32]
  %i2_5 = add i4 %i2_1, 1, !dbg !2897             ; [#uses=1 type=i4] [debug line = 88:27]
  br i1 %exitcond, label %7, label %6, !dbg !2893 ; [debug line = 88:11]

; <label>:6                                       ; preds = %5
  %tmp_37 = trunc i4 %i2_1 to i3                  ; [#uses=1 type=i3]
  %tmp_26 = call i6 @_ssdm_op_BitConcatenate.i6.i3.i3(i3 %tmp_37, i3 0), !dbg !2895 ; [#uses=1 type=i6] [debug line = 89:7]
  %tmp_27 = add i6 %i0_cast5, %tmp_26, !dbg !2895 ; [#uses=1 type=i6] [debug line = 89:7]
  %tmp_27_cast = zext i6 %tmp_27 to i32, !dbg !2895 ; [#uses=1 type=i32] [debug line = 89:7]
  %a_addr_2 = getelementptr inbounds [64 x i32]* %a, i32 0, i32 %tmp_27_cast, !dbg !2895 ; [#uses=1 type=i32*] [debug line = 89:7]
  %a_load_2 = load i32* %a_addr_2, align 4, !dbg !2895 ; [#uses=1 type=i32] [debug line = 89:7]
  %tmp_28 = add i6 %tmp_17, %i2_1_cast1, !dbg !2895 ; [#uses=1 type=i6] [debug line = 89:7]
  %tmp_28_cast = zext i6 %tmp_28 to i32, !dbg !2895 ; [#uses=1 type=i32] [debug line = 89:7]
  %b_1_addr = getelementptr [64 x i8]* @b_1, i32 0, i32 %tmp_28_cast, !dbg !2895 ; [#uses=1 type=i8*] [debug line = 89:7]
  %b_1_load = load i8* %b_1_addr, align 1, !dbg !2895 ; [#uses=1 type=i8] [debug line = 89:7]
  %b_1_load_cast = sext i8 %b_1_load to i32, !dbg !2895 ; [#uses=1 type=i32] [debug line = 89:7]
  %tmp_29 = mul nsw i32 %a_load_2, %b_1_load_cast, !dbg !2895 ; [#uses=1 type=i32] [debug line = 89:7]
  %tmp_30 = add nsw i32 %tmp_29, %sc_FIFO_DCT_mB_load_1, !dbg !2895 ; [#uses=1 type=i32] [debug line = 89:7]
  call void @llvm.dbg.value(metadata !{i4 %i2_5}, i64 0, metadata !2889), !dbg !2897 ; [debug line = 88:27] [debug variable = i2]
  br label %5, !dbg !2897                         ; [debug line = 88:27]

; <label>:7                                       ; preds = %5
  %tmp_36 = call i1 @_ssdm_op_BitSelect.i1.i32.i32(i32 %sc_FIFO_DCT_mB_load_1, i32 31), !dbg !2898 ; [#uses=1 type=i1] [debug line = 91:6]
  %p_neg = sub i32 0, %sc_FIFO_DCT_mB_load_1, !dbg !2898 ; [#uses=1 type=i32] [debug line = 91:6]
  %tmp_24 = call i8 @_ssdm_op_PartSelect.i8.i32.i32.i32(i32 %p_neg, i32 19, i32 26), !dbg !2898 ; [#uses=1 type=i8] [debug line = 91:6]
  %tmp_25 = sub i8 0, %tmp_24, !dbg !2898         ; [#uses=1 type=i8] [debug line = 91:6]
  %tmp_31 = call i8 @_ssdm_op_PartSelect.i8.i32.i32.i32(i32 %sc_FIFO_DCT_mB_load_1, i32 19, i32 26), !dbg !2898 ; [#uses=1 type=i8] [debug line = 91:6]
  %tmp_32 = select i1 %tmp_36, i8 %tmp_25, i8 %tmp_31, !dbg !2898 ; [#uses=1 type=i8] [debug line = 91:6]
  %p_s = add i8 %tmp_32, 127, !dbg !2899          ; [#uses=1 type=i8] [debug line = 1455:74@343:80@343:82@91:6]
  call void @_ssdm_op_Write.ap_fifo.volatile.i8P(i8* %sc_FIFO_DCT_dout_m_if_Val_V, i8 %p_s), !dbg !2906 ; [debug line = 365:13@56:100@257:73@504:72@91:6]
  call void @llvm.dbg.value(metadata !{i4 %i1_5}, i64 0, metadata !2879), !dbg !2890 ; [debug line = 86:26] [debug variable = i1]
  br label %.preheader, !dbg !2890                ; [debug line = 86:26]

_ZN7_ap_sc_7sc_core4waitEi.exit:                  ; preds = %.loopexit
  call void @llvm.dbg.value(metadata !{i1* %sc_FIFO_DCT_done_m_if_Val}, i64 0, metadata !1535), !dbg !2910 ; [debug line = 128:96@207:13@446:81@95:7] [debug variable = P]
  call void @_ssdm_op_Write.ap_auto.volatile.i1P(i1* %sc_FIFO_DCT_done_m_if_Val, i1 true), !dbg !2914 ; [debug line = 167:116@207:13@446:81@95:7]
  %sc_FIFO_DCT_exec_cnt_1 = call i32 @_ssdm_op_Read.ap_auto.i32P(i32* %sc_FIFO_DCT_exec_cnt), !dbg !2915 ; [#uses=1 type=i32] [debug line = 96:7]
  %sc_FIFO_DCT_exec_cnt_2 = add nsw i32 %sc_FIFO_DCT_exec_cnt_1, 1, !dbg !2915 ; [#uses=1 type=i32] [debug line = 96:7]
  call void @_ssdm_op_Write.ap_auto.i32P(i32* %sc_FIFO_DCT_exec_cnt, i32 %sc_FIFO_DCT_exec_cnt_2), !dbg !2915 ; [debug line = 96:7]
  call void (...)* @_ssdm_op_Wait(i32 1) nounwind, !dbg !2916 ; [debug line = 803:19@97:7]
  br label %0, !dbg !2918                         ; [debug line = 98:4]
}

; [#uses=1]
define void @"sc_FIFO_DCT::Prc1"(i1* %sc_FIFO_DCT_clock_m_if_Val, i1* %sc_FIFO_DCT_reset_m_if_Val, i1* %sc_FIFO_DCT_start_m_if_Val, i1* %sc_FIFO_DCT_done_m_if_Val, i8* %sc_FIFO_DCT_dout_m_if_Val_V, i8* %sc_FIFO_DCT_din_m_if_Val_V, [100 x i32]* %sc_FIFO_DCT_mA, [100 x i32]* %sc_FIFO_DCT_mB, i1* %sc_FIFO_DCT_write_done, i32* %sc_FIFO_DCT_exec_cnt) {
_ZN7_ap_sc_7sc_core4waitEi.exit:
  call void (...)* @_ssdm_op_SpecBitsMap(i1* %sc_FIFO_DCT_clock_m_if_Val), !map !1715
  call void (...)* @_ssdm_op_SpecBitsMap(i1* %sc_FIFO_DCT_reset_m_if_Val), !map !1719
  call void (...)* @_ssdm_op_SpecBitsMap(i1* %sc_FIFO_DCT_start_m_if_Val), !map !1723
  call void (...)* @_ssdm_op_SpecBitsMap(i1* %sc_FIFO_DCT_done_m_if_Val), !map !1727
  call void (...)* @_ssdm_op_SpecBitsMap(i8* %sc_FIFO_DCT_dout_m_if_Val_V), !map !1731
  call void (...)* @_ssdm_op_SpecBitsMap(i8* %sc_FIFO_DCT_din_m_if_Val_V), !map !1735
  call void (...)* @_ssdm_op_SpecBitsMap([100 x i32]* %sc_FIFO_DCT_mA), !map !1739
  call void (...)* @_ssdm_op_SpecBitsMap([100 x i32]* %sc_FIFO_DCT_mB), !map !1743
  call void (...)* @_ssdm_op_SpecBitsMap(i1* %sc_FIFO_DCT_write_done), !map !1747
  call void (...)* @_ssdm_op_SpecBitsMap(i32* %sc_FIFO_DCT_exec_cnt), !map !1751
  call void @llvm.dbg.value(metadata !{i1* %sc_FIFO_DCT_clock_m_if_Val}, i64 0, metadata !2919), !dbg !2922 ; [debug line = 44:19] [debug variable = sc_FIFO_DCT.clock.m_if.Val]
  call void @llvm.dbg.value(metadata !{i1* %sc_FIFO_DCT_reset_m_if_Val}, i64 0, metadata !2923), !dbg !2922 ; [debug line = 44:19] [debug variable = sc_FIFO_DCT.reset.m_if.Val]
  call void @llvm.dbg.value(metadata !{i1* %sc_FIFO_DCT_start_m_if_Val}, i64 0, metadata !2924), !dbg !2922 ; [debug line = 44:19] [debug variable = sc_FIFO_DCT.start.m_if.Val]
  call void @llvm.dbg.value(metadata !{i1* %sc_FIFO_DCT_done_m_if_Val}, i64 0, metadata !2925), !dbg !2922 ; [debug line = 44:19] [debug variable = sc_FIFO_DCT.done.m_if.Val]
  call void @llvm.dbg.value(metadata !{i8* %sc_FIFO_DCT_dout_m_if_Val_V}, i64 0, metadata !2926), !dbg !2922 ; [debug line = 44:19] [debug variable = sc_FIFO_DCT.dout.m_if.Val.V]
  call void @llvm.dbg.value(metadata !{i8* %sc_FIFO_DCT_din_m_if_Val_V}, i64 0, metadata !2927), !dbg !2922 ; [debug line = 44:19] [debug variable = sc_FIFO_DCT.din.m_if.Val.V]
  call void @llvm.dbg.value(metadata !{[100 x i32]* %sc_FIFO_DCT_mA}, i64 0, metadata !2928), !dbg !2922 ; [debug line = 44:19] [debug variable = sc_FIFO_DCT.mA]
  call void @llvm.dbg.value(metadata !{[100 x i32]* %sc_FIFO_DCT_mB}, i64 0, metadata !2929), !dbg !2922 ; [debug line = 44:19] [debug variable = sc_FIFO_DCT.mB]
  call void @llvm.dbg.value(metadata !{i1* %sc_FIFO_DCT_write_done}, i64 0, metadata !2930), !dbg !2922 ; [debug line = 44:19] [debug variable = sc_FIFO_DCT.write_done]
  call void @llvm.dbg.value(metadata !{i32* %sc_FIFO_DCT_exec_cnt}, i64 0, metadata !2931), !dbg !2922 ; [debug line = 44:19] [debug variable = sc_FIFO_DCT.exec_cnt]
  call void (...)* @_ssdm_op_SpecPort([12 x i8]* @p_str21, i32 0, [7 x i8]* @p_str122, [6 x i8]* @p_str223, i32 0, i32 0, i1* %sc_FIFO_DCT_clock_m_if_Val) nounwind, !dbg !2932 ; [debug line = 45:4]
  call void (...)* @_ssdm_op_SpecPort([12 x i8]* @p_str21, i32 0, [7 x i8]* @p_str122, [6 x i8]* @p_str324, i32 0, i32 0, i1* %sc_FIFO_DCT_reset_m_if_Val) nounwind, !dbg !2934 ; [debug line = 46:3]
  call void (...)* @_ssdm_op_SpecPort([12 x i8]* @p_str21, i32 0, [7 x i8]* @p_str122, [6 x i8]* @p_str425, i32 0, i32 0, i1* %sc_FIFO_DCT_start_m_if_Val) nounwind, !dbg !2935 ; [debug line = 47:3]
  call void (...)* @_ssdm_op_SpecPort([12 x i8]* @p_str21, i32 1, [7 x i8]* @p_str122, [5 x i8]* @p_str526, i32 0, i32 0, i1* %sc_FIFO_DCT_done_m_if_Val) nounwind, !dbg !2936 ; [debug line = 48:3]
  call void (...)* @_ssdm_op_SpecInterface(i8* %sc_FIFO_DCT_dout_m_if_Val_V, [8 x i8]* @p_str627, i32 0, i32 0, [1 x i8]* @p_str728, i32 0, i32 0, [1 x i8]* @p_str728, [1 x i8]* @p_str728, [1 x i8]* @p_str728, i32 0, i32 0, i32 0, i32 0, [1 x i8]* @p_str728, [1 x i8]* @p_str728) nounwind, !dbg !2937 ; [debug line = 49:3]
  call void (...)* @_ssdm_op_SpecInterface(i8* %sc_FIFO_DCT_din_m_if_Val_V, [8 x i8]* @p_str627, i32 0, i32 0, [1 x i8]* @p_str728, i32 0, i32 0, [1 x i8]* @p_str728, [1 x i8]* @p_str728, [1 x i8]* @p_str728, i32 0, i32 0, i32 0, i32 0, [1 x i8]* @p_str728, [1 x i8]* @p_str728) nounwind, !dbg !2938 ; [debug line = 50:3]
  call void (...)* @_ssdm_op_SpecProcessDef([12 x i8]* @p_str21, i32 2, [5 x i8]* @p_str829) nounwind, !dbg !2939 ; [debug line = 51:3]
  %tmp_s = call i32 (...)* @_ssdm_op_SpecRegionBegin([15 x i8]* @p_str930), !dbg !2940 ; [#uses=1 type=i32] [debug line = 51:107]
  call void (...)* @_ssdm_op_SpecProtocol(i32 1, [1 x i8]* @p_str728) nounwind, !dbg !2941 ; [debug line = 51:191]
  %p_ssdm_reset_v = call i32 (...)* @_ssdm_op_SpecStateBegin(i32 0, i32 0, i32 1) nounwind, !dbg !2942 ; [#uses=1 type=i32] [debug line = 51:241]
  call void @llvm.dbg.value(metadata !{i32 %p_ssdm_reset_v}, i64 0, metadata !2943), !dbg !2942 ; [debug line = 51:241] [debug variable = _ssdm_reset_v]
  call void @_ssdm_op_Write.ap_auto.i1P(i1* %sc_FIFO_DCT_write_done, i1 false), !dbg !2944 ; [debug line = 47:1]
  %empty = call i32 (...)* @_ssdm_op_SpecStateEnd(i32 %p_ssdm_reset_v) nounwind, !dbg !2945 ; [#uses=0 type=i32] [debug line = 47:21]
  %empty_21 = call i32 (...)* @_ssdm_op_SpecRegionEnd([15 x i8]* @p_str930, i32 %tmp_s), !dbg !2946 ; [#uses=0 type=i32] [debug line = 47:59]
  call void (...)* @_ssdm_op_Wait(i32 1) nounwind, !dbg !2947 ; [debug line = 803:19@49:1]
  br label %0, !dbg !2949                         ; [debug line = 50:5]

; <label>:0                                       ; preds = %_ZN7_ap_sc_7sc_core4waitEi.exit2, %_ZN7_ap_sc_7sc_core4waitEi.exit
  %loop_begin = call i32 (...)* @_ssdm_op_SpecLoopBegin() nounwind ; [#uses=0 type=i32]
  call void (...)* @_ssdm_op_Wait(i32 1) nounwind, !dbg !2950 ; [debug line = 52:10]
  call void @llvm.dbg.value(metadata !{i8* %sc_FIFO_DCT_din_m_if_Val_V}, i64 0, metadata !1668), !dbg !2953 ; [debug line = 154:77@242:20@495:77@52:40] [debug variable = P.V]
  %empty_22 = call i1 @_ssdm_op_NbReadReq.ap_fifo.i8P(i8* %sc_FIFO_DCT_din_m_if_Val_V, i32 1), !dbg !2957 ; [#uses=0 type=i1] [debug line = 97:12@242:20@495:77@52:40]
  call void (...)* @_ssdm_op_Poll(i1 false), !dbg !2958 ; [debug line = 52:67]
  br label %1, !dbg !2959                         ; [debug line = 54:18]

; <label>:1                                       ; preds = %2, %0
  %i = phi i7 [ 0, %0 ], [ %i_2, %2 ]             ; [#uses=3 type=i7]
  %i_cast1 = zext i7 %i to i32, !dbg !2959        ; [#uses=1 type=i32] [debug line = 54:18]
  %exitcond = icmp eq i7 %i, -64, !dbg !2959      ; [#uses=1 type=i1] [debug line = 54:18]
  %empty_23 = call i32 (...)* @_ssdm_op_SpecLoopTripCount(i64 64, i64 64, i64 64) ; [#uses=0 type=i32]
  %i_2 = add i7 %i, 1, !dbg !2961                 ; [#uses=1 type=i7] [debug line = 54:25]
  br i1 %exitcond, label %_ZN7_ap_sc_7sc_core4waitEi.exit2, label %2, !dbg !2959 ; [debug line = 54:18]

; <label>:2                                       ; preds = %1
  %val_V = call i8 @_ssdm_op_Read.ap_fifo.volatile.i8P(i8* %sc_FIFO_DCT_din_m_if_Val_V), !dbg !2962 ; [#uses=1 type=i8] [debug line = 374:13@60:21@234:66@492:65@55:23]
  call void @llvm.dbg.value(metadata !{i8 %val_V}, i64 0, metadata !1708), !dbg !2962 ; [debug line = 374:13@60:21@234:66@492:65@55:23] [debug variable = val.V]
  %tmp = zext i8 %val_V to i32, !dbg !2966        ; [#uses=1 type=i32] [debug line = 55:23]
  %sc_FIFO_DCT_mA_addr = getelementptr [100 x i32]* %sc_FIFO_DCT_mA, i32 0, i32 %i_cast1, !dbg !2966 ; [#uses=1 type=i32*] [debug line = 55:23]
  store i32 %tmp, i32* %sc_FIFO_DCT_mA_addr, align 4, !dbg !2966 ; [debug line = 55:23]
  call void @llvm.dbg.value(metadata !{i7 %i_2}, i64 0, metadata !2967), !dbg !2961 ; [debug line = 54:25] [debug variable = i]
  br label %1, !dbg !2961                         ; [debug line = 54:25]

_ZN7_ap_sc_7sc_core4waitEi.exit2:                 ; preds = %1
  call void (...)* @_ssdm_op_Wait(i32 1) nounwind, !dbg !2968 ; [debug line = 803:19@58:7]
  call void @_ssdm_op_Write.ap_auto.i1P(i1* %sc_FIFO_DCT_write_done, i1 false), !dbg !2970 ; [debug line = 59:4]
  br label %0, !dbg !2971                         ; [debug line = 60:4]
}

; [#uses=1]
declare i32 @llvm.part.select.i32(i32, i32, i32) nounwind readnone

; [#uses=189]
declare void @llvm.dbg.value(metadata, i64, metadata) nounwind readnone

; [#uses=2]
declare void @llvm.dbg.declare(metadata, metadata) nounwind readnone

; [#uses=1]
define void @"imager_512::imager_buffer"(i1* %imager_512_clock_m_if_Val, i1* %imager_512_reset_m_if_Val, i1* %imager_512_start_m_if_Val, i1* %imager_512_done_m_if_Val, i8* %imager_512_dout_m_if_Val_V, i8* %imager_512_din_m_if_Val_V, [4096 x i8]* %imager_512_img_data_V, i1* %imager_512_write_done, i1* %imager_512_b_done) {
_ZN7_ap_sc_7sc_core4waitEi.exit:
  call void (...)* @_ssdm_op_SpecBitsMap(i1* %imager_512_clock_m_if_Val), !map !2972
  call void (...)* @_ssdm_op_SpecBitsMap(i1* %imager_512_reset_m_if_Val), !map !2976
  call void (...)* @_ssdm_op_SpecBitsMap(i1* %imager_512_start_m_if_Val), !map !2980
  call void (...)* @_ssdm_op_SpecBitsMap(i1* %imager_512_done_m_if_Val), !map !2984
  call void (...)* @_ssdm_op_SpecBitsMap(i8* %imager_512_dout_m_if_Val_V), !map !2988
  call void (...)* @_ssdm_op_SpecBitsMap(i8* %imager_512_din_m_if_Val_V), !map !2992
  call void (...)* @_ssdm_op_SpecBitsMap([4096 x i8]* %imager_512_img_data_V), !map !2996
  call void (...)* @_ssdm_op_SpecBitsMap(i1* %imager_512_write_done), !map !3000
  call void (...)* @_ssdm_op_SpecBitsMap(i1* %imager_512_b_done), !map !3004
  call void @llvm.dbg.value(metadata !{i1* %imager_512_clock_m_if_Val}, i64 0, metadata !3008), !dbg !3985 ; [debug line = 3:18] [debug variable = imager_512.clock.m_if.Val]
  call void @llvm.dbg.value(metadata !{i1* %imager_512_reset_m_if_Val}, i64 0, metadata !3986), !dbg !3985 ; [debug line = 3:18] [debug variable = imager_512.reset.m_if.Val]
  call void @llvm.dbg.value(metadata !{i1* %imager_512_start_m_if_Val}, i64 0, metadata !3987), !dbg !3985 ; [debug line = 3:18] [debug variable = imager_512.start.m_if.Val]
  call void @llvm.dbg.value(metadata !{i1* %imager_512_done_m_if_Val}, i64 0, metadata !3988), !dbg !3985 ; [debug line = 3:18] [debug variable = imager_512.done.m_if.Val]
  call void @llvm.dbg.value(metadata !{i8* %imager_512_dout_m_if_Val_V}, i64 0, metadata !3999), !dbg !3985 ; [debug line = 3:18] [debug variable = imager_512.dout.m_if.Val.V]
  call void @llvm.dbg.value(metadata !{i8* %imager_512_din_m_if_Val_V}, i64 0, metadata !4015), !dbg !3985 ; [debug line = 3:18] [debug variable = imager_512.din.m_if.Val.V]
  call void @llvm.dbg.value(metadata !{[4096 x i8]* %imager_512_img_data_V}, i64 0, metadata !4024), !dbg !3985 ; [debug line = 3:18] [debug variable = imager_512.img_data.V]
  call void @llvm.dbg.value(metadata !{i1* %imager_512_write_done}, i64 0, metadata !4029), !dbg !3985 ; [debug line = 3:18] [debug variable = imager_512.write_done]
  call void @llvm.dbg.value(metadata !{i1* %imager_512_b_done}, i64 0, metadata !4033), !dbg !3985 ; [debug line = 3:18] [debug variable = imager_512.b_done]
  call void (...)* @_ssdm_op_SpecPort([11 x i8]* @p_str54, i32 0, [7 x i8]* @p_str155, [6 x i8]* @p_str256, i32 0, i32 0, i1* %imager_512_clock_m_if_Val) nounwind, !dbg !4037 ; [debug line = 4:4]
  call void (...)* @_ssdm_op_SpecPort([11 x i8]* @p_str54, i32 0, [7 x i8]* @p_str155, [6 x i8]* @p_str357, i32 0, i32 0, i1* %imager_512_reset_m_if_Val) nounwind, !dbg !4039 ; [debug line = 5:3]
  call void (...)* @_ssdm_op_SpecPort([11 x i8]* @p_str54, i32 0, [7 x i8]* @p_str155, [6 x i8]* @p_str458, i32 0, i32 0, i1* %imager_512_start_m_if_Val) nounwind, !dbg !4040 ; [debug line = 6:3]
  call void (...)* @_ssdm_op_SpecPort([11 x i8]* @p_str54, i32 1, [7 x i8]* @p_str155, [5 x i8]* @p_str559, i32 0, i32 0, i1* %imager_512_done_m_if_Val) nounwind, !dbg !4041 ; [debug line = 7:3]
  call void (...)* @_ssdm_op_SpecInterface(i8* %imager_512_dout_m_if_Val_V, [8 x i8]* @p_str660, i32 0, i32 0, [1 x i8]* @p_str761, i32 0, i32 0, [1 x i8]* @p_str761, [1 x i8]* @p_str761, [1 x i8]* @p_str761, i32 0, i32 0, i32 0, i32 0, [1 x i8]* @p_str761, [1 x i8]* @p_str761) nounwind, !dbg !4042 ; [debug line = 8:3]
  call void (...)* @_ssdm_op_SpecInterface(i8* %imager_512_din_m_if_Val_V, [8 x i8]* @p_str660, i32 0, i32 0, [1 x i8]* @p_str761, i32 0, i32 0, [1 x i8]* @p_str761, [1 x i8]* @p_str761, [1 x i8]* @p_str761, i32 0, i32 0, i32 0, i32 0, [1 x i8]* @p_str761, [1 x i8]* @p_str761) nounwind, !dbg !4043 ; [debug line = 9:3]
  call void (...)* @_ssdm_op_SpecProcessDef([11 x i8]* @p_str54, i32 2, [14 x i8]* @p_str862) nounwind, !dbg !4044 ; [debug line = 10:3]
  %tmp = call i32 (...)* @_ssdm_op_SpecRegionBegin([15 x i8]* @p_str963), !dbg !4045 ; [#uses=1 type=i32] [debug line = 10:115]
  call void (...)* @_ssdm_op_SpecProtocol(i32 1, [1 x i8]* @p_str761) nounwind, !dbg !4046 ; [debug line = 10:199]
  %p_ssdm_reset_v = call i32 (...)* @_ssdm_op_SpecStateBegin(i32 0, i32 0, i32 1) nounwind, !dbg !4047 ; [#uses=1 type=i32] [debug line = 10:249]
  call void @llvm.dbg.value(metadata !{i32 %p_ssdm_reset_v}, i64 0, metadata !4048), !dbg !4047 ; [debug line = 10:249] [debug variable = _ssdm_reset_v]
  call void @_ssdm_op_Write.ap_auto.i1P(i1* %imager_512_write_done, i1 false), !dbg !4049 ; [debug line = 6:1]
  %empty = call i32 (...)* @_ssdm_op_SpecStateEnd(i32 %p_ssdm_reset_v) nounwind, !dbg !4050 ; [#uses=0 type=i32] [debug line = 6:21]
  %empty_24 = call i32 (...)* @_ssdm_op_SpecRegionEnd([15 x i8]* @p_str963, i32 %tmp), !dbg !4051 ; [#uses=0 type=i32] [debug line = 6:59]
  call void (...)* @_ssdm_op_Wait(i32 1) nounwind, !dbg !4052 ; [debug line = 803:19@8:1]
  br label %0, !dbg !4054                         ; [debug line = 9:5]

; <label>:0                                       ; preds = %_ZN7_ap_sc_7sc_core4waitEi.exit2, %_ZN7_ap_sc_7sc_core4waitEi.exit
  %loop_begin = call i32 (...)* @_ssdm_op_SpecLoopBegin() nounwind ; [#uses=0 type=i32]
  call void (...)* @_ssdm_op_Wait(i32 1) nounwind, !dbg !4055 ; [debug line = 11:7]
  call void @llvm.dbg.value(metadata !{i8* %imager_512_din_m_if_Val_V}, i64 0, metadata !1668), !dbg !4058 ; [debug line = 154:77@242:20@495:77@11:37] [debug variable = P.V]
  %empty_25 = call i1 @_ssdm_op_NbReadReq.ap_fifo.i8P(i8* %imager_512_din_m_if_Val_V, i32 1), !dbg !4062 ; [#uses=0 type=i1] [debug line = 97:12@242:20@495:77@11:37]
  call void (...)* @_ssdm_op_Poll(i1 false), !dbg !4063 ; [debug line = 11:67]
  call void (...)* @_ssdm_op_Wait(i32 1) nounwind, !dbg !4064 ; [debug line = 12:7]
  %imager_512_b_done_re = call i1 @_ssdm_op_Read.ap_auto.i1P(i1* %imager_512_b_done), !dbg !4066 ; [#uses=1 type=i1] [debug line = 12:45]
  call void (...)* @_ssdm_op_Poll(i1 %imager_512_b_done_re), !dbg !4067 ; [debug line = 12:47]
  br label %1, !dbg !4068                         ; [debug line = 14:17]

; <label>:1                                       ; preds = %2, %0
  %i = phi i13 [ 0, %0 ], [ %i_3, %2 ]            ; [#uses=3 type=i13]
  %i_cast1 = zext i13 %i to i32, !dbg !4068       ; [#uses=1 type=i32] [debug line = 14:17]
  %exitcond = icmp eq i13 %i, -4096, !dbg !4068   ; [#uses=1 type=i1] [debug line = 14:17]
  %empty_26 = call i32 (...)* @_ssdm_op_SpecLoopTripCount(i64 4096, i64 4096, i64 4096) ; [#uses=0 type=i32]
  %i_3 = add i13 %i, 1, !dbg !4070                ; [#uses=1 type=i13] [debug line = 14:30]
  br i1 %exitcond, label %_ZN7_ap_sc_7sc_core4waitEi.exit2, label %2, !dbg !4068 ; [debug line = 14:17]

; <label>:2                                       ; preds = %1
  %val_V = call i8 @_ssdm_op_Read.ap_fifo.volatile.i8P(i8* %imager_512_din_m_if_Val_V), !dbg !4071 ; [#uses=1 type=i8] [debug line = 374:13@60:21@234:66@492:65@16:19]
  call void @llvm.dbg.value(metadata !{i8 %val_V}, i64 0, metadata !1708), !dbg !4071 ; [debug line = 374:13@60:21@234:66@492:65@16:19] [debug variable = val.V]
  %imager_512_img_data_s = getelementptr [4096 x i8]* %imager_512_img_data_V, i32 0, i32 %i_cast1, !dbg !4077 ; [#uses=1 type=i8*] [debug line = 378:13@16:19]
  store i8 %val_V, i8* %imager_512_img_data_s, align 1, !dbg !4077 ; [debug line = 378:13@16:19]
  call void @llvm.dbg.value(metadata !{i13 %i_3}, i64 0, metadata !4080), !dbg !4070 ; [debug line = 14:30] [debug variable = i]
  br label %1, !dbg !4070                         ; [debug line = 14:30]

_ZN7_ap_sc_7sc_core4waitEi.exit2:                 ; preds = %1
  call void @_ssdm_op_Write.ap_auto.i1P(i1* %imager_512_write_done, i1 true), !dbg !4081 ; [debug line = 19:4]
  call void (...)* @_ssdm_op_Wait(i32 1) nounwind, !dbg !4082 ; [debug line = 803:19@20:4]
  br label %0, !dbg !4084                         ; [debug line = 21:4]
}

; [#uses=1]
define void @"imager_512::imager_512_main"(i1* %imager_512_clock_m_if_Val, i1* %imager_512_reset_m_if_Val, i1* %imager_512_start_m_if_Val, i1* %imager_512_done_m_if_Val, i8* %imager_512_dout_m_if_Val_V, i8* %imager_512_din_m_if_Val_V, [4096 x i8]* %imager_512_img_data_V, i1* %imager_512_write_done, i1* %imager_512_b_done) {
_ZN7_ap_sc_7sc_core4waitEi.exit2:
  call void (...)* @_ssdm_op_SpecBitsMap(i1* %imager_512_clock_m_if_Val), !map !2972
  call void (...)* @_ssdm_op_SpecBitsMap(i1* %imager_512_reset_m_if_Val), !map !2976
  call void (...)* @_ssdm_op_SpecBitsMap(i1* %imager_512_start_m_if_Val), !map !2980
  call void (...)* @_ssdm_op_SpecBitsMap(i1* %imager_512_done_m_if_Val), !map !2984
  call void (...)* @_ssdm_op_SpecBitsMap(i8* %imager_512_dout_m_if_Val_V), !map !2988
  call void (...)* @_ssdm_op_SpecBitsMap(i8* %imager_512_din_m_if_Val_V), !map !2992
  call void (...)* @_ssdm_op_SpecBitsMap([4096 x i8]* %imager_512_img_data_V), !map !2996
  call void (...)* @_ssdm_op_SpecBitsMap(i1* %imager_512_write_done), !map !3000
  call void (...)* @_ssdm_op_SpecBitsMap(i1* %imager_512_b_done), !map !3004
  call void @llvm.dbg.value(metadata !{i1* %imager_512_clock_m_if_Val}, i64 0, metadata !4085), !dbg !4088 ; [debug line = 24:18] [debug variable = imager_512.clock.m_if.Val]
  call void @llvm.dbg.value(metadata !{i1* %imager_512_reset_m_if_Val}, i64 0, metadata !4089), !dbg !4088 ; [debug line = 24:18] [debug variable = imager_512.reset.m_if.Val]
  call void @llvm.dbg.value(metadata !{i1* %imager_512_start_m_if_Val}, i64 0, metadata !4090), !dbg !4088 ; [debug line = 24:18] [debug variable = imager_512.start.m_if.Val]
  call void @llvm.dbg.value(metadata !{i1* %imager_512_done_m_if_Val}, i64 0, metadata !4091), !dbg !4088 ; [debug line = 24:18] [debug variable = imager_512.done.m_if.Val]
  call void @llvm.dbg.value(metadata !{i8* %imager_512_dout_m_if_Val_V}, i64 0, metadata !4092), !dbg !4088 ; [debug line = 24:18] [debug variable = imager_512.dout.m_if.Val.V]
  call void @llvm.dbg.value(metadata !{i8* %imager_512_din_m_if_Val_V}, i64 0, metadata !4093), !dbg !4088 ; [debug line = 24:18] [debug variable = imager_512.din.m_if.Val.V]
  call void @llvm.dbg.value(metadata !{[4096 x i8]* %imager_512_img_data_V}, i64 0, metadata !4094), !dbg !4088 ; [debug line = 24:18] [debug variable = imager_512.img_data.V]
  call void @llvm.dbg.value(metadata !{i1* %imager_512_write_done}, i64 0, metadata !4095), !dbg !4088 ; [debug line = 24:18] [debug variable = imager_512.write_done]
  call void @llvm.dbg.value(metadata !{i1* %imager_512_b_done}, i64 0, metadata !4096), !dbg !4088 ; [debug line = 24:18] [debug variable = imager_512.b_done]
  call void (...)* @_ssdm_op_SpecPort([11 x i8]* @p_str54, i32 0, [7 x i8]* @p_str155, [6 x i8]* @p_str256, i32 0, i32 0, i1* %imager_512_clock_m_if_Val) nounwind, !dbg !4097 ; [debug line = 25:4]
  call void (...)* @_ssdm_op_SpecPort([11 x i8]* @p_str54, i32 0, [7 x i8]* @p_str155, [6 x i8]* @p_str357, i32 0, i32 0, i1* %imager_512_reset_m_if_Val) nounwind, !dbg !4099 ; [debug line = 26:3]
  call void (...)* @_ssdm_op_SpecPort([11 x i8]* @p_str54, i32 0, [7 x i8]* @p_str155, [6 x i8]* @p_str458, i32 0, i32 0, i1* %imager_512_start_m_if_Val) nounwind, !dbg !4100 ; [debug line = 27:3]
  call void (...)* @_ssdm_op_SpecPort([11 x i8]* @p_str54, i32 1, [7 x i8]* @p_str155, [5 x i8]* @p_str559, i32 0, i32 0, i1* %imager_512_done_m_if_Val) nounwind, !dbg !4101 ; [debug line = 28:3]
  call void (...)* @_ssdm_op_SpecInterface(i8* %imager_512_dout_m_if_Val_V, [8 x i8]* @p_str660, i32 0, i32 0, [1 x i8]* @p_str761, i32 0, i32 0, [1 x i8]* @p_str761, [1 x i8]* @p_str761, [1 x i8]* @p_str761, i32 0, i32 0, i32 0, i32 0, [1 x i8]* @p_str761, [1 x i8]* @p_str761) nounwind, !dbg !4102 ; [debug line = 29:3]
  call void (...)* @_ssdm_op_SpecInterface(i8* %imager_512_din_m_if_Val_V, [8 x i8]* @p_str660, i32 0, i32 0, [1 x i8]* @p_str761, i32 0, i32 0, [1 x i8]* @p_str761, [1 x i8]* @p_str761, [1 x i8]* @p_str761, i32 0, i32 0, i32 0, i32 0, [1 x i8]* @p_str761, [1 x i8]* @p_str761) nounwind, !dbg !4103 ; [debug line = 30:3]
  call void (...)* @_ssdm_op_SpecProcessDef([11 x i8]* @p_str54, i32 2, [16 x i8]* @p_str1872) nounwind, !dbg !4104 ; [debug line = 31:3]
  %tmp_s = call i32 (...)* @_ssdm_op_SpecRegionBegin([15 x i8]* @p_str963), !dbg !4105 ; [#uses=1 type=i32] [debug line = 31:117]
  call void (...)* @_ssdm_op_SpecProtocol(i32 1, [1 x i8]* @p_str761) nounwind, !dbg !4106 ; [debug line = 31:201]
  %p_ssdm_reset_v = call i32 (...)* @_ssdm_op_SpecStateBegin(i32 0, i32 0, i32 1) nounwind, !dbg !4107 ; [#uses=1 type=i32] [debug line = 31:251]
  call void @llvm.dbg.value(metadata !{i32 %p_ssdm_reset_v}, i64 0, metadata !4108), !dbg !4107 ; [debug line = 31:251] [debug variable = _ssdm_reset_v]
  call void @llvm.dbg.value(metadata !{i1* %imager_512_done_m_if_Val}, i64 0, metadata !1535), !dbg !4109 ; [debug line = 128:96@207:13@446:81@26:1] [debug variable = P]
  call void @_ssdm_op_Write.ap_auto.volatile.i1P(i1* %imager_512_done_m_if_Val, i1 false), !dbg !4113 ; [debug line = 167:116@207:13@446:81@26:1]
  call void @_ssdm_op_Write.ap_auto.i1P(i1* %imager_512_b_done, i1 true), !dbg !4114 ; [debug line = 27:1]
  %empty = call i32 (...)* @_ssdm_op_SpecStateEnd(i32 %p_ssdm_reset_v) nounwind, !dbg !4115 ; [#uses=0 type=i32] [debug line = 27:16]
  %empty_27 = call i32 (...)* @_ssdm_op_SpecRegionEnd([15 x i8]* @p_str963, i32 %tmp_s), !dbg !4116 ; [#uses=0 type=i32] [debug line = 27:54]
  call void (...)* @_ssdm_op_Wait(i32 1) nounwind, !dbg !4117 ; [debug line = 803:19@28:1]
  br label %0, !dbg !4119                         ; [debug line = 29:5]

; <label>:0                                       ; preds = %_ZN7_ap_sc_7sc_core4waitEi.exit, %_ZN7_ap_sc_7sc_core4waitEi.exit2
  %loop_begin = call i32 (...)* @_ssdm_op_SpecLoopBegin() nounwind ; [#uses=0 type=i32]
  call void (...)* @_ssdm_op_Wait(i32 1) nounwind, !dbg !4120 ; [debug line = 34:6]
  %imager_512_write_don = call i1 @_ssdm_op_Read.ap_auto.i1P(i1* %imager_512_write_done), !dbg !4123 ; [#uses=1 type=i1] [debug line = 34:48]
  call void (...)* @_ssdm_op_Poll(i1 %imager_512_write_don), !dbg !4124 ; [debug line = 34:50]
  call void @_ssdm_op_Write.ap_auto.i1P(i1* %imager_512_b_done, i1 false), !dbg !4125 ; [debug line = 35:3]
  br label %.loopexit, !dbg !4126                 ; [debug line = 37:17]

.loopexit.loopexit:                               ; preds = %.preheader25
  br label %.loopexit

.loopexit:                                        ; preds = %.loopexit.loopexit, %0
  %k = phi i4 [ 0, %0 ], [ %k_1, %.loopexit.loopexit ] ; [#uses=3 type=i4]
  %exitcond9 = icmp eq i4 %k, -8, !dbg !4126      ; [#uses=1 type=i1] [debug line = 37:17]
  %empty_28 = call i32 (...)* @_ssdm_op_SpecLoopTripCount(i64 8, i64 8, i64 8) ; [#uses=0 type=i32]
  %k_1 = add i4 %k, 1, !dbg !4128                 ; [#uses=1 type=i4] [debug line = 37:26]
  call void @llvm.dbg.value(metadata !{i4 %k_1}, i64 0, metadata !4129), !dbg !4128 ; [debug line = 37:26] [debug variable = k]
  br i1 %exitcond9, label %_ZN7_ap_sc_7sc_core4waitEi.exit, label %.preheader25.preheader, !dbg !4126 ; [debug line = 37:17]

.preheader25.preheader:                           ; preds = %.loopexit
  %tmp_38 = trunc i4 %k to i3                     ; [#uses=1 type=i3]
  %tmp = call i6 @_ssdm_op_BitConcatenate.i6.i3.i3(i3 %tmp_38, i3 0), !dbg !4130 ; [#uses=1 type=i6] [debug line = 43:6]
  br label %.preheader25, !dbg !4136              ; [debug line = 39:18]

.preheader25.loopexit:                            ; preds = %.preheader
  br label %.preheader25

.preheader25:                                     ; preds = %.preheader25.loopexit, %.preheader25.preheader
  %j = phi i7 [ 0, %.preheader25.preheader ], [ %j_1, %.preheader25.loopexit ] ; [#uses=3 type=i7]
  %exitcond1 = icmp eq i7 %j, -64, !dbg !4136     ; [#uses=1 type=i1] [debug line = 39:18]
  %empty_29 = call i32 (...)* @_ssdm_op_SpecLoopTripCount(i64 64, i64 64, i64 64) ; [#uses=0 type=i32]
  %j_1 = add i7 %j, 1, !dbg !4137                 ; [#uses=1 type=i7] [debug line = 39:35]
  call void @llvm.dbg.value(metadata !{i7 %j_1}, i64 0, metadata !4138), !dbg !4137 ; [debug line = 39:35] [debug variable = j]
  br i1 %exitcond1, label %.loopexit.loopexit, label %.preheader.preheader, !dbg !4136 ; [debug line = 39:18]

.preheader.preheader:                             ; preds = %.preheader25
  br label %.preheader, !dbg !4139                ; [debug line = 41:19]

.preheader:                                       ; preds = %1, %.preheader.preheader
  %i = phi i4 [ %i_4, %1 ], [ 0, %.preheader.preheader ] ; [#uses=3 type=i4]
  %i_cast2 = zext i4 %i to i6, !dbg !4139         ; [#uses=1 type=i6] [debug line = 41:19]
  %exitcond = icmp eq i4 %i, -8, !dbg !4139       ; [#uses=1 type=i1] [debug line = 41:19]
  %empty_30 = call i32 (...)* @_ssdm_op_SpecLoopTripCount(i64 8, i64 8, i64 8) ; [#uses=0 type=i32]
  %i_4 = add i4 %i, 1, !dbg !4140                 ; [#uses=1 type=i4] [debug line = 41:28]
  br i1 %exitcond, label %.preheader25.loopexit, label %1, !dbg !4139 ; [debug line = 41:19]

; <label>:1                                       ; preds = %.preheader
  %tmp1 = add i6 %tmp, %i_cast2, !dbg !4130       ; [#uses=1 type=i6] [debug line = 43:6]
  %tmp_39 = trunc i7 %j to i6                     ; [#uses=1 type=i6]
  %tmp_32 = call i12 @_ssdm_op_BitConcatenate.i12.i6.i6(i6 %tmp_39, i6 %tmp1), !dbg !4130 ; [#uses=1 type=i12] [debug line = 43:6]
  %tmp_32_cast = zext i12 %tmp_32 to i32, !dbg !4130 ; [#uses=1 type=i32] [debug line = 43:6]
  %imager_512_img_data_s = getelementptr [4096 x i8]* %imager_512_img_data_V, i32 0, i32 %tmp_32_cast, !dbg !4141 ; [#uses=1 type=i8*] [debug line = 365:13@56:100@257:73@504:72@43:6]
  %imager_512_img_data_1 = load i8* %imager_512_img_data_s, align 1, !dbg !4141 ; [#uses=1 type=i8] [debug line = 365:13@56:100@257:73@504:72@43:6]
  call void @_ssdm_op_Write.ap_fifo.volatile.i8P(i8* %imager_512_dout_m_if_Val_V, i8 %imager_512_img_data_1), !dbg !4141 ; [debug line = 365:13@56:100@257:73@504:72@43:6]
  call void @llvm.dbg.value(metadata !{i4 %i_4}, i64 0, metadata !4145), !dbg !4140 ; [debug line = 41:28] [debug variable = i]
  br label %.preheader, !dbg !4140                ; [debug line = 41:28]

_ZN7_ap_sc_7sc_core4waitEi.exit:                  ; preds = %.loopexit
  call void @_ssdm_op_Write.ap_auto.i1P(i1* %imager_512_write_done, i1 false), !dbg !4146 ; [debug line = 47:3]
  call void @llvm.dbg.value(metadata !{i1* %imager_512_done_m_if_Val}, i64 0, metadata !1535), !dbg !4147 ; [debug line = 128:96@207:13@446:81@48:3] [debug variable = P]
  call void @_ssdm_op_Write.ap_auto.volatile.i1P(i1* %imager_512_done_m_if_Val, i1 true), !dbg !4151 ; [debug line = 167:116@207:13@446:81@48:3]
  call void @_ssdm_op_Write.ap_auto.i1P(i1* %imager_512_b_done, i1 true), !dbg !4152 ; [debug line = 49:3]
  call void (...)* @_ssdm_op_Wait(i32 1) nounwind, !dbg !4153 ; [debug line = 803:19@50:3]
  br label %0, !dbg !4155                         ; [debug line = 51:2]
}

; [#uses=0]
define weak void @"imager_512::imager_512"(i1* %imager_512_clock_m_if_Val, i1* %imager_512_reset_m_if_Val, i1* %imager_512_start_m_if_Val, i1* %imager_512_done_m_if_Val, i8* %imager_512_dout_m_if_Val_V, i8* %imager_512_din_m_if_Val_V, [4096 x i8]* %imager_512_img_data_V, i1* %imager_512_write_done, i1* %imager_512_b_done) {
  call void (...)* @_ssdm_op_SpecBitsMap(i1* %imager_512_clock_m_if_Val), !map !2972
  call void (...)* @_ssdm_op_SpecBitsMap(i1* %imager_512_reset_m_if_Val), !map !2976
  call void (...)* @_ssdm_op_SpecBitsMap(i1* %imager_512_start_m_if_Val), !map !2980
  call void (...)* @_ssdm_op_SpecBitsMap(i1* %imager_512_done_m_if_Val), !map !2984
  call void (...)* @_ssdm_op_SpecBitsMap(i8* %imager_512_dout_m_if_Val_V), !map !2988
  call void (...)* @_ssdm_op_SpecBitsMap(i8* %imager_512_din_m_if_Val_V), !map !2992
  call void (...)* @_ssdm_op_SpecBitsMap([4096 x i8]* %imager_512_img_data_V), !map !2996
  call void (...)* @_ssdm_op_SpecBitsMap(i1* %imager_512_write_done), !map !3000
  call void (...)* @_ssdm_op_SpecBitsMap(i1* %imager_512_b_done), !map !3004
  call void @llvm.dbg.value(metadata !{i1* %imager_512_clock_m_if_Val}, i64 0, metadata !4156), !dbg !4159 ; [debug line = 22:3] [debug variable = imager_512.clock.m_if.Val]
  call void @llvm.dbg.value(metadata !{i1* %imager_512_reset_m_if_Val}, i64 0, metadata !4160), !dbg !4159 ; [debug line = 22:3] [debug variable = imager_512.reset.m_if.Val]
  call void @llvm.dbg.value(metadata !{i1* %imager_512_start_m_if_Val}, i64 0, metadata !4161), !dbg !4159 ; [debug line = 22:3] [debug variable = imager_512.start.m_if.Val]
  call void @llvm.dbg.value(metadata !{i1* %imager_512_done_m_if_Val}, i64 0, metadata !4162), !dbg !4159 ; [debug line = 22:3] [debug variable = imager_512.done.m_if.Val]
  call void @llvm.dbg.value(metadata !{i8* %imager_512_dout_m_if_Val_V}, i64 0, metadata !4163), !dbg !4159 ; [debug line = 22:3] [debug variable = imager_512.dout.m_if.Val.V]
  call void @llvm.dbg.value(metadata !{i8* %imager_512_din_m_if_Val_V}, i64 0, metadata !4164), !dbg !4159 ; [debug line = 22:3] [debug variable = imager_512.din.m_if.Val.V]
  call void @llvm.dbg.value(metadata !{[4096 x i8]* %imager_512_img_data_V}, i64 0, metadata !4165), !dbg !4159 ; [debug line = 22:3] [debug variable = imager_512.img_data.V]
  call void @llvm.dbg.value(metadata !{i1* %imager_512_write_done}, i64 0, metadata !4166), !dbg !4159 ; [debug line = 22:3] [debug variable = imager_512.write_done]
  call void @llvm.dbg.value(metadata !{i1* %imager_512_b_done}, i64 0, metadata !4167), !dbg !4159 ; [debug line = 22:3] [debug variable = imager_512.b_done]
  call void @llvm.dbg.value(metadata !{i8* %imager_512_dout_m_if_Val_V}, i64 0, metadata !4168), !dbg !4171 ; [debug line = 502:18@23:2] [debug variable = sc_port_b<_ap_sc_::sc_core::sc_fifo_out_if<_ap_sc_::sc_dt::sc_uint<8> > >.m_if.Val.V]
  call void @llvm.dbg.value(metadata !{i8* %imager_512_dout_m_if_Val_V}, i64 0, metadata !4172), !dbg !4175 ; [debug line = 502:18@502:34@23:2] [debug variable = sc_port_b<_ap_sc_::sc_core::sc_fifo_out_if<_ap_sc_::sc_dt::sc_uint<8> > >.m_if.Val.V]
  call void @llvm.dbg.value(metadata !{i8* %imager_512_dout_m_if_Val_V}, i64 0, metadata !4176), !dbg !4180 ; [debug line = 252:47@285:68@502:32@502:34@23:2] [debug variable = sc_fifo_out_if<_ap_sc_::sc_dt::sc_uint<8> >.Val.V]
  call void @llvm.dbg.value(metadata !{i8* %imager_512_dout_m_if_Val_V}, i64 0, metadata !4181), !dbg !4184 ; [debug line = 252:47@255:9@285:68@502:32@502:34@23:2] [debug variable = sc_fifo_out_if<_ap_sc_::sc_dt::sc_uint<8> >.Val.V]
  call void (...)* @_ssdm_op_SpecInterface(i8* %imager_512_dout_m_if_Val_V, [8 x i8]* @p_str6, i32 0, i32 0, [1 x i8]* @p_str7, i32 0, i32 0, [1 x i8]* @p_str7, [1 x i8]* @p_str7, [1 x i8]* @p_str7, i32 0, i32 0, i32 0, i32 0, [1 x i8]* @p_str7, [1 x i8]* @p_str7) nounwind, !dbg !4185 ; [debug line = 253:13@255:9@285:68@502:32@502:34@23:2]
  call void (...)* @_ssdm_op_SpecPort([1 x i8]* @p_str7, i32 5, [1 x i8]* @p_str7, [1 x i8]* @p_str7, i32 0, i32 0, i8* %imager_512_dout_m_if_Val_V) nounwind, !dbg !4186 ; [debug line = 254:13@255:9@285:68@502:32@502:34@23:2]
  call void @llvm.dbg.value(metadata !{i8* %imager_512_din_m_if_Val_V}, i64 0, metadata !4187), !dbg !4189 ; [debug line = 490:18@23:2] [debug variable = sc_port_b<_ap_sc_::sc_core::sc_fifo_in_if<_ap_sc_::sc_dt::sc_uint<8> > >.m_if.Val.V]
  call void @llvm.dbg.value(metadata !{i8* %imager_512_din_m_if_Val_V}, i64 0, metadata !4190), !dbg !4193 ; [debug line = 490:18@490:33@23:2] [debug variable = sc_port_b<_ap_sc_::sc_core::sc_fifo_in_if<_ap_sc_::sc_dt::sc_uint<8> > >.m_if.Val.V]
  call void @llvm.dbg.value(metadata !{i8* %imager_512_din_m_if_Val_V}, i64 0, metadata !4194), !dbg !4198 ; [debug line = 229:47@285:68@490:31@490:33@23:2] [debug variable = sc_fifo_in_if<_ap_sc_::sc_dt::sc_uint<8> >.Val.V]
  call void @llvm.dbg.value(metadata !{i8* %imager_512_din_m_if_Val_V}, i64 0, metadata !4199), !dbg !4202 ; [debug line = 229:47@232:9@285:68@490:31@490:33@23:2] [debug variable = sc_fifo_in_if<_ap_sc_::sc_dt::sc_uint<8> >.Val.V]
  call void (...)* @_ssdm_op_SpecInterface(i8* %imager_512_din_m_if_Val_V, [8 x i8]* @p_str6, i32 0, i32 0, [1 x i8]* @p_str7, i32 0, i32 0, [1 x i8]* @p_str7, [1 x i8]* @p_str7, [1 x i8]* @p_str7, i32 0, i32 0, i32 0, i32 0, [1 x i8]* @p_str7, [1 x i8]* @p_str7) nounwind, !dbg !4203 ; [debug line = 230:12@232:9@285:68@490:31@490:33@23:2]
  call void (...)* @_ssdm_op_SpecPort([1 x i8]* @p_str7, i32 4, [1 x i8]* @p_str7, [1 x i8]* @p_str7, i32 0, i32 0, i8* %imager_512_din_m_if_Val_V) nounwind, !dbg !4204 ; [debug line = 231:12@232:9@285:68@490:31@490:33@23:2]
  call void (...)* @_ssdm_op_SpecTopModule([11 x i8]* @p_str54, [11 x i8]* @p_str54) nounwind, !dbg !4205 ; [debug line = 24:5]
  %imager_512_ssdm_t = load i1* @imager_512_ssdm_thread_M_imager_buffer, align 1, !dbg !4207 ; [#uses=1 type=i1] [debug line = 25:5]
  br i1 %imager_512_ssdm_t, label %1, label %2, !dbg !4207 ; [debug line = 25:5]

; <label>:1                                       ; preds = %0
  call void @"imager_512::imager_buffer"(i1* %imager_512_clock_m_if_Val, i1* %imager_512_reset_m_if_Val, i1* %imager_512_start_m_if_Val, i1* %imager_512_done_m_if_Val, i8* %imager_512_dout_m_if_Val_V, i8* %imager_512_din_m_if_Val_V, [4096 x i8]* %imager_512_img_data_V, i1* %imager_512_write_done, i1* %imager_512_b_done), !dbg !4208 ; [debug line = 25:40]
  br label %UnifiedUnreachableBlock

; <label>:2                                       ; preds = %0
  call void (...)* @_ssdm_op_SpecProcessDecl([11 x i8]* @p_str54, i32 2, [14 x i8]* @p_str862) nounwind, !dbg !4209 ; [debug line = 25:57]
  call void (...)* @_ssdm_op_SpecSensitive([14 x i8]* @p_str862, [6 x i8]* @p_str256, i1* %imager_512_clock_m_if_Val, i32 1) nounwind, !dbg !4210 ; [debug line = 26:5]
  call void (...)* @_ssdm_op_SpecSensitive([14 x i8]* @p_str862, [6 x i8]* @p_str357, i1* %imager_512_reset_m_if_Val, i32 3) nounwind, !dbg !4211 ; [debug line = 27:5]
  %imager_512_ssdm_t_1 = load i1* @imager_512_ssdm_thread_M_imager_512_main, align 1, !dbg !4212 ; [#uses=1 type=i1] [debug line = 28:5]
  br i1 %imager_512_ssdm_t_1, label %3, label %4, !dbg !4212 ; [debug line = 28:5]

; <label>:3                                       ; preds = %2
  call void @"imager_512::imager_512_main"(i1* %imager_512_clock_m_if_Val, i1* %imager_512_reset_m_if_Val, i1* %imager_512_start_m_if_Val, i1* %imager_512_done_m_if_Val, i8* %imager_512_dout_m_if_Val_V, i8* %imager_512_din_m_if_Val_V, [4096 x i8]* %imager_512_img_data_V, i1* %imager_512_write_done, i1* %imager_512_b_done), !dbg !4213 ; [debug line = 28:42]
  br label %UnifiedUnreachableBlock

; <label>:4                                       ; preds = %2
  call void (...)* @_ssdm_op_SpecProcessDecl([11 x i8]* @p_str54, i32 2, [16 x i8]* @p_str1872) nounwind, !dbg !4214 ; [debug line = 28:61]
  call void (...)* @_ssdm_op_SpecSensitive([16 x i8]* @p_str1872, [6 x i8]* @p_str256, i1* %imager_512_clock_m_if_Val, i32 1) nounwind, !dbg !4215 ; [debug line = 29:5]
  call void (...)* @_ssdm_op_SpecSensitive([16 x i8]* @p_str1872, [6 x i8]* @p_str357, i1* %imager_512_reset_m_if_Val, i32 3) nounwind, !dbg !4216 ; [debug line = 30:5]
  call void (...)* @_ssdm_op_SpecPort([11 x i8]* @p_str54, i32 0, [7 x i8]* @p_str155, [6 x i8]* @p_str256, i32 0, i32 0, i1* %imager_512_clock_m_if_Val) nounwind, !dbg !4217 ; [debug line = 31:5]
  call void (...)* @_ssdm_op_SpecPort([11 x i8]* @p_str54, i32 0, [7 x i8]* @p_str155, [6 x i8]* @p_str357, i32 0, i32 0, i1* %imager_512_reset_m_if_Val) nounwind, !dbg !4218 ; [debug line = 32:5]
  call void (...)* @_ssdm_op_SpecPort([11 x i8]* @p_str54, i32 0, [7 x i8]* @p_str155, [6 x i8]* @p_str458, i32 0, i32 0, i1* %imager_512_start_m_if_Val) nounwind, !dbg !4219 ; [debug line = 33:5]
  call void (...)* @_ssdm_op_SpecPort([11 x i8]* @p_str54, i32 1, [7 x i8]* @p_str155, [5 x i8]* @p_str559, i32 0, i32 0, i1* %imager_512_done_m_if_Val) nounwind, !dbg !4220 ; [debug line = 34:5]
  call void (...)* @_ssdm_op_SpecInterface(i8* %imager_512_dout_m_if_Val_V, [8 x i8]* @p_str660, i32 0, i32 0, [1 x i8]* @p_str761, i32 0, i32 0, [1 x i8]* @p_str761, [1 x i8]* @p_str761, [1 x i8]* @p_str761, i32 0, i32 0, i32 0, i32 0, [1 x i8]* @p_str761, [1 x i8]* @p_str761) nounwind, !dbg !4221 ; [debug line = 35:5]
  call void (...)* @_ssdm_op_SpecPort([11 x i8]* @p_str54, i32 5, [13 x i8]* @p_str22, [5 x i8]* @p_str1165, i32 0, i32 0, i8* %imager_512_dout_m_if_Val_V) nounwind, !dbg !4222 ; [debug line = 36:5]
  call void (...)* @_ssdm_op_SpecInterface(i8* %imager_512_din_m_if_Val_V, [8 x i8]* @p_str660, i32 0, i32 0, [1 x i8]* @p_str761, i32 0, i32 0, [1 x i8]* @p_str761, [1 x i8]* @p_str761, [1 x i8]* @p_str761, i32 0, i32 0, i32 0, i32 0, [1 x i8]* @p_str761, [1 x i8]* @p_str761) nounwind, !dbg !4223 ; [debug line = 37:5]
  call void (...)* @_ssdm_op_SpecPort([11 x i8]* @p_str54, i32 4, [13 x i8]* @p_str22, [4 x i8]* @p_str1266, i32 0, i32 0, i8* %imager_512_din_m_if_Val_V) nounwind, !dbg !4224 ; [debug line = 38:5]
  ret void, !dbg !4225                            ; [debug line = 36:1]

UnifiedUnreachableBlock:                          ; preds = %3, %1
  unreachable
}

; [#uses=1]
define void @"blocker_512::blocker_buffer"(i1* %blocker_512_clock_m_if_Val, i1* %blocker_512_reset_m_if_Val, i1* %blocker_512_start_m_if_Val, i1* %blocker_512_done_m_if_Val, i8* %blocker_512_dout_m_if_Val_V, i8* %blocker_512_din_m_if_Val_V, [4096 x i8]* %blocker_512_img_data_V, i1* %blocker_512_write_done, i1* %blocker_512_b_done) {
_ZN7_ap_sc_7sc_core4waitEi.exit:
  call void (...)* @_ssdm_op_SpecBitsMap(i1* %blocker_512_clock_m_if_Val), !map !4226
  call void (...)* @_ssdm_op_SpecBitsMap(i1* %blocker_512_reset_m_if_Val), !map !4230
  call void (...)* @_ssdm_op_SpecBitsMap(i1* %blocker_512_start_m_if_Val), !map !4234
  call void (...)* @_ssdm_op_SpecBitsMap(i1* %blocker_512_done_m_if_Val), !map !4238
  call void (...)* @_ssdm_op_SpecBitsMap(i8* %blocker_512_dout_m_if_Val_V), !map !4242
  call void (...)* @_ssdm_op_SpecBitsMap(i8* %blocker_512_din_m_if_Val_V), !map !4246
  call void (...)* @_ssdm_op_SpecBitsMap([4096 x i8]* %blocker_512_img_data_V), !map !4250
  call void (...)* @_ssdm_op_SpecBitsMap(i1* %blocker_512_write_done), !map !4254
  call void (...)* @_ssdm_op_SpecBitsMap(i1* %blocker_512_b_done), !map !4258
  call void @llvm.dbg.value(metadata !{i1* %blocker_512_clock_m_if_Val}, i64 0, metadata !4262), !dbg !5237 ; [debug line = 5:19] [debug variable = blocker_512.clock.m_if.Val]
  call void @llvm.dbg.value(metadata !{i1* %blocker_512_reset_m_if_Val}, i64 0, metadata !5238), !dbg !5237 ; [debug line = 5:19] [debug variable = blocker_512.reset.m_if.Val]
  call void @llvm.dbg.value(metadata !{i1* %blocker_512_start_m_if_Val}, i64 0, metadata !5239), !dbg !5237 ; [debug line = 5:19] [debug variable = blocker_512.start.m_if.Val]
  call void @llvm.dbg.value(metadata !{i1* %blocker_512_done_m_if_Val}, i64 0, metadata !5240), !dbg !5237 ; [debug line = 5:19] [debug variable = blocker_512.done.m_if.Val]
  call void @llvm.dbg.value(metadata !{i8* %blocker_512_dout_m_if_Val_V}, i64 0, metadata !5251), !dbg !5237 ; [debug line = 5:19] [debug variable = blocker_512.dout.m_if.Val.V]
  call void @llvm.dbg.value(metadata !{i8* %blocker_512_din_m_if_Val_V}, i64 0, metadata !5267), !dbg !5237 ; [debug line = 5:19] [debug variable = blocker_512.din.m_if.Val.V]
  call void @llvm.dbg.value(metadata !{[4096 x i8]* %blocker_512_img_data_V}, i64 0, metadata !5276), !dbg !5237 ; [debug line = 5:19] [debug variable = blocker_512.img_data.V]
  call void @llvm.dbg.value(metadata !{i1* %blocker_512_write_done}, i64 0, metadata !5281), !dbg !5237 ; [debug line = 5:19] [debug variable = blocker_512.write_done]
  call void @llvm.dbg.value(metadata !{i1* %blocker_512_b_done}, i64 0, metadata !5285), !dbg !5237 ; [debug line = 5:19] [debug variable = blocker_512.b_done]
  call void (...)* @_ssdm_op_SpecPort([12 x i8]* @p_str80, i32 0, [7 x i8]* @p_str181, [6 x i8]* @p_str282, i32 0, i32 0, i1* %blocker_512_clock_m_if_Val) nounwind, !dbg !5289 ; [debug line = 6:4]
  call void (...)* @_ssdm_op_SpecPort([12 x i8]* @p_str80, i32 0, [7 x i8]* @p_str181, [6 x i8]* @p_str383, i32 0, i32 0, i1* %blocker_512_reset_m_if_Val) nounwind, !dbg !5291 ; [debug line = 7:3]
  call void (...)* @_ssdm_op_SpecPort([12 x i8]* @p_str80, i32 0, [7 x i8]* @p_str181, [6 x i8]* @p_str484, i32 0, i32 0, i1* %blocker_512_start_m_if_Val) nounwind, !dbg !5292 ; [debug line = 8:3]
  call void (...)* @_ssdm_op_SpecPort([12 x i8]* @p_str80, i32 1, [7 x i8]* @p_str181, [5 x i8]* @p_str585, i32 0, i32 0, i1* %blocker_512_done_m_if_Val) nounwind, !dbg !5293 ; [debug line = 9:3]
  call void (...)* @_ssdm_op_SpecInterface(i8* %blocker_512_dout_m_if_Val_V, [8 x i8]* @p_str686, i32 0, i32 0, [1 x i8]* @p_str787, i32 0, i32 0, [1 x i8]* @p_str787, [1 x i8]* @p_str787, [1 x i8]* @p_str787, i32 0, i32 0, i32 0, i32 0, [1 x i8]* @p_str787, [1 x i8]* @p_str787) nounwind, !dbg !5294 ; [debug line = 10:3]
  call void (...)* @_ssdm_op_SpecInterface(i8* %blocker_512_din_m_if_Val_V, [8 x i8]* @p_str686, i32 0, i32 0, [1 x i8]* @p_str787, i32 0, i32 0, [1 x i8]* @p_str787, [1 x i8]* @p_str787, [1 x i8]* @p_str787, i32 0, i32 0, i32 0, i32 0, [1 x i8]* @p_str787, [1 x i8]* @p_str787) nounwind, !dbg !5295 ; [debug line = 11:3]
  call void (...)* @_ssdm_op_SpecProcessDef([12 x i8]* @p_str80, i32 2, [15 x i8]* @p_str888) nounwind, !dbg !5296 ; [debug line = 12:3]
  %tmp = call i32 (...)* @_ssdm_op_SpecRegionBegin([15 x i8]* @p_str989), !dbg !5297 ; [#uses=1 type=i32] [debug line = 12:117]
  call void (...)* @_ssdm_op_SpecProtocol(i32 1, [1 x i8]* @p_str787) nounwind, !dbg !5298 ; [debug line = 12:201]
  %p_ssdm_reset_v = call i32 (...)* @_ssdm_op_SpecStateBegin(i32 0, i32 0, i32 1) nounwind, !dbg !5299 ; [#uses=1 type=i32] [debug line = 12:251]
  call void @llvm.dbg.value(metadata !{i32 %p_ssdm_reset_v}, i64 0, metadata !5300), !dbg !5299 ; [debug line = 12:251] [debug variable = _ssdm_reset_v]
  call void @_ssdm_op_Write.ap_auto.i1P(i1* %blocker_512_write_done, i1 false), !dbg !5301 ; [debug line = 8:1]
  %empty = call i32 (...)* @_ssdm_op_SpecStateEnd(i32 %p_ssdm_reset_v) nounwind, !dbg !5302 ; [#uses=0 type=i32] [debug line = 8:21]
  %empty_31 = call i32 (...)* @_ssdm_op_SpecRegionEnd([15 x i8]* @p_str989, i32 %tmp), !dbg !5303 ; [#uses=0 type=i32] [debug line = 8:59]
  call void (...)* @_ssdm_op_Wait(i32 1) nounwind, !dbg !5304 ; [debug line = 803:19@10:1]
  br label %0, !dbg !5306                         ; [debug line = 11:5]

; <label>:0                                       ; preds = %_ZN7_ap_sc_7sc_core4waitEi.exit2, %_ZN7_ap_sc_7sc_core4waitEi.exit
  %loop_begin = call i32 (...)* @_ssdm_op_SpecLoopBegin() nounwind ; [#uses=0 type=i32]
  call void (...)* @_ssdm_op_Wait(i32 1) nounwind, !dbg !5307 ; [debug line = 13:7]
  call void @llvm.dbg.value(metadata !{i8* %blocker_512_din_m_if_Val_V}, i64 0, metadata !1668), !dbg !5310 ; [debug line = 154:77@242:20@495:77@13:37] [debug variable = P.V]
  %empty_32 = call i1 @_ssdm_op_NbReadReq.ap_fifo.i8P(i8* %blocker_512_din_m_if_Val_V, i32 1), !dbg !5314 ; [#uses=0 type=i1] [debug line = 97:12@242:20@495:77@13:37]
  call void (...)* @_ssdm_op_Poll(i1 false), !dbg !5315 ; [debug line = 13:67]
  call void (...)* @_ssdm_op_Wait(i32 1) nounwind, !dbg !5316 ; [debug line = 14:7]
  %blocker_512_b_done_r = call i1 @_ssdm_op_Read.ap_auto.i1P(i1* %blocker_512_b_done), !dbg !5318 ; [#uses=1 type=i1] [debug line = 14:45]
  call void (...)* @_ssdm_op_Poll(i1 %blocker_512_b_done_r), !dbg !5319 ; [debug line = 14:47]
  br label %1, !dbg !5320                         ; [debug line = 16:17]

; <label>:1                                       ; preds = %2, %0
  %i = phi i13 [ 0, %0 ], [ %i_5, %2 ]            ; [#uses=3 type=i13]
  %i_cast1 = zext i13 %i to i32, !dbg !5320       ; [#uses=1 type=i32] [debug line = 16:17]
  %exitcond = icmp eq i13 %i, -4096, !dbg !5320   ; [#uses=1 type=i1] [debug line = 16:17]
  %empty_33 = call i32 (...)* @_ssdm_op_SpecLoopTripCount(i64 4096, i64 4096, i64 4096) ; [#uses=0 type=i32]
  %i_5 = add i13 %i, 1, !dbg !5322                ; [#uses=1 type=i13] [debug line = 16:30]
  br i1 %exitcond, label %_ZN7_ap_sc_7sc_core4waitEi.exit2, label %2, !dbg !5320 ; [debug line = 16:17]

; <label>:2                                       ; preds = %1
  %val_V = call i8 @_ssdm_op_Read.ap_fifo.volatile.i8P(i8* %blocker_512_din_m_if_Val_V), !dbg !5323 ; [#uses=1 type=i8] [debug line = 374:13@60:21@234:66@492:65@18:19]
  call void @llvm.dbg.value(metadata !{i8 %val_V}, i64 0, metadata !1708), !dbg !5323 ; [debug line = 374:13@60:21@234:66@492:65@18:19] [debug variable = val.V]
  %blocker_512_img_data = getelementptr [4096 x i8]* %blocker_512_img_data_V, i32 0, i32 %i_cast1, !dbg !5329 ; [#uses=1 type=i8*] [debug line = 378:13@18:19]
  store i8 %val_V, i8* %blocker_512_img_data, align 1, !dbg !5329 ; [debug line = 378:13@18:19]
  call void @llvm.dbg.value(metadata !{i13 %i_5}, i64 0, metadata !5330), !dbg !5322 ; [debug line = 16:30] [debug variable = i]
  br label %1, !dbg !5322                         ; [debug line = 16:30]

_ZN7_ap_sc_7sc_core4waitEi.exit2:                 ; preds = %1
  call void @_ssdm_op_Write.ap_auto.i1P(i1* %blocker_512_write_done, i1 true), !dbg !5331 ; [debug line = 21:4]
  call void (...)* @_ssdm_op_Wait(i32 1) nounwind, !dbg !5332 ; [debug line = 803:19@22:4]
  br label %0, !dbg !5334                         ; [debug line = 23:4]
}

; [#uses=1]
define void @"blocker_512::blocker_512_main"(i1* %blocker_512_clock_m_if_Val, i1* %blocker_512_reset_m_if_Val, i1* %blocker_512_start_m_if_Val, i1* %blocker_512_done_m_if_Val, i8* %blocker_512_dout_m_if_Val_V, i8* %blocker_512_din_m_if_Val_V, [4096 x i8]* %blocker_512_img_data_V, i1* %blocker_512_write_done, i1* %blocker_512_b_done) {
_ZN7_ap_sc_7sc_core4waitEi.exit2:
  call void (...)* @_ssdm_op_SpecBitsMap(i1* %blocker_512_clock_m_if_Val), !map !4226
  call void (...)* @_ssdm_op_SpecBitsMap(i1* %blocker_512_reset_m_if_Val), !map !4230
  call void (...)* @_ssdm_op_SpecBitsMap(i1* %blocker_512_start_m_if_Val), !map !4234
  call void (...)* @_ssdm_op_SpecBitsMap(i1* %blocker_512_done_m_if_Val), !map !4238
  call void (...)* @_ssdm_op_SpecBitsMap(i8* %blocker_512_dout_m_if_Val_V), !map !4242
  call void (...)* @_ssdm_op_SpecBitsMap(i8* %blocker_512_din_m_if_Val_V), !map !4246
  call void (...)* @_ssdm_op_SpecBitsMap([4096 x i8]* %blocker_512_img_data_V), !map !4250
  call void (...)* @_ssdm_op_SpecBitsMap(i1* %blocker_512_write_done), !map !4254
  call void (...)* @_ssdm_op_SpecBitsMap(i1* %blocker_512_b_done), !map !4258
  call void @llvm.dbg.value(metadata !{i1* %blocker_512_clock_m_if_Val}, i64 0, metadata !5335), !dbg !5338 ; [debug line = 26:19] [debug variable = blocker_512.clock.m_if.Val]
  call void @llvm.dbg.value(metadata !{i1* %blocker_512_reset_m_if_Val}, i64 0, metadata !5339), !dbg !5338 ; [debug line = 26:19] [debug variable = blocker_512.reset.m_if.Val]
  call void @llvm.dbg.value(metadata !{i1* %blocker_512_start_m_if_Val}, i64 0, metadata !5340), !dbg !5338 ; [debug line = 26:19] [debug variable = blocker_512.start.m_if.Val]
  call void @llvm.dbg.value(metadata !{i1* %blocker_512_done_m_if_Val}, i64 0, metadata !5341), !dbg !5338 ; [debug line = 26:19] [debug variable = blocker_512.done.m_if.Val]
  call void @llvm.dbg.value(metadata !{i8* %blocker_512_dout_m_if_Val_V}, i64 0, metadata !5342), !dbg !5338 ; [debug line = 26:19] [debug variable = blocker_512.dout.m_if.Val.V]
  call void @llvm.dbg.value(metadata !{i8* %blocker_512_din_m_if_Val_V}, i64 0, metadata !5343), !dbg !5338 ; [debug line = 26:19] [debug variable = blocker_512.din.m_if.Val.V]
  call void @llvm.dbg.value(metadata !{[4096 x i8]* %blocker_512_img_data_V}, i64 0, metadata !5344), !dbg !5338 ; [debug line = 26:19] [debug variable = blocker_512.img_data.V]
  call void @llvm.dbg.value(metadata !{i1* %blocker_512_write_done}, i64 0, metadata !5345), !dbg !5338 ; [debug line = 26:19] [debug variable = blocker_512.write_done]
  call void @llvm.dbg.value(metadata !{i1* %blocker_512_b_done}, i64 0, metadata !5346), !dbg !5338 ; [debug line = 26:19] [debug variable = blocker_512.b_done]
  call void (...)* @_ssdm_op_SpecPort([12 x i8]* @p_str80, i32 0, [7 x i8]* @p_str181, [6 x i8]* @p_str282, i32 0, i32 0, i1* %blocker_512_clock_m_if_Val) nounwind, !dbg !5347 ; [debug line = 27:4]
  call void (...)* @_ssdm_op_SpecPort([12 x i8]* @p_str80, i32 0, [7 x i8]* @p_str181, [6 x i8]* @p_str383, i32 0, i32 0, i1* %blocker_512_reset_m_if_Val) nounwind, !dbg !5349 ; [debug line = 28:3]
  call void (...)* @_ssdm_op_SpecPort([12 x i8]* @p_str80, i32 0, [7 x i8]* @p_str181, [6 x i8]* @p_str484, i32 0, i32 0, i1* %blocker_512_start_m_if_Val) nounwind, !dbg !5350 ; [debug line = 29:3]
  call void (...)* @_ssdm_op_SpecPort([12 x i8]* @p_str80, i32 1, [7 x i8]* @p_str181, [5 x i8]* @p_str585, i32 0, i32 0, i1* %blocker_512_done_m_if_Val) nounwind, !dbg !5351 ; [debug line = 30:3]
  call void (...)* @_ssdm_op_SpecInterface(i8* %blocker_512_dout_m_if_Val_V, [8 x i8]* @p_str686, i32 0, i32 0, [1 x i8]* @p_str787, i32 0, i32 0, [1 x i8]* @p_str787, [1 x i8]* @p_str787, [1 x i8]* @p_str787, i32 0, i32 0, i32 0, i32 0, [1 x i8]* @p_str787, [1 x i8]* @p_str787) nounwind, !dbg !5352 ; [debug line = 31:3]
  call void (...)* @_ssdm_op_SpecInterface(i8* %blocker_512_din_m_if_Val_V, [8 x i8]* @p_str686, i32 0, i32 0, [1 x i8]* @p_str787, i32 0, i32 0, [1 x i8]* @p_str787, [1 x i8]* @p_str787, [1 x i8]* @p_str787, i32 0, i32 0, i32 0, i32 0, [1 x i8]* @p_str787, [1 x i8]* @p_str787) nounwind, !dbg !5353 ; [debug line = 32:3]
  call void (...)* @_ssdm_op_SpecProcessDef([12 x i8]* @p_str80, i32 2, [17 x i8]* @p_str1898) nounwind, !dbg !5354 ; [debug line = 33:3]
  %tmp_33 = call i32 (...)* @_ssdm_op_SpecRegionBegin([15 x i8]* @p_str989), !dbg !5355 ; [#uses=1 type=i32] [debug line = 33:119]
  call void (...)* @_ssdm_op_SpecProtocol(i32 1, [1 x i8]* @p_str787) nounwind, !dbg !5356 ; [debug line = 33:203]
  %p_ssdm_reset_v = call i32 (...)* @_ssdm_op_SpecStateBegin(i32 0, i32 0, i32 1) nounwind, !dbg !5357 ; [#uses=1 type=i32] [debug line = 33:253]
  call void @llvm.dbg.value(metadata !{i32 %p_ssdm_reset_v}, i64 0, metadata !5358), !dbg !5357 ; [debug line = 33:253] [debug variable = _ssdm_reset_v]
  call void @llvm.dbg.value(metadata !{i1* %blocker_512_done_m_if_Val}, i64 0, metadata !1535), !dbg !5359 ; [debug line = 128:96@207:13@446:81@28:1] [debug variable = P]
  call void @_ssdm_op_Write.ap_auto.volatile.i1P(i1* %blocker_512_done_m_if_Val, i1 false), !dbg !5363 ; [debug line = 167:116@207:13@446:81@28:1]
  call void @_ssdm_op_Write.ap_auto.i1P(i1* %blocker_512_b_done, i1 true), !dbg !5364 ; [debug line = 29:1]
  %empty = call i32 (...)* @_ssdm_op_SpecStateEnd(i32 %p_ssdm_reset_v) nounwind, !dbg !5365 ; [#uses=0 type=i32] [debug line = 29:16]
  %empty_34 = call i32 (...)* @_ssdm_op_SpecRegionEnd([15 x i8]* @p_str989, i32 %tmp_33), !dbg !5366 ; [#uses=0 type=i32] [debug line = 29:54]
  call void (...)* @_ssdm_op_Wait(i32 1) nounwind, !dbg !5367 ; [debug line = 803:19@30:1]
  br label %0, !dbg !5369                         ; [debug line = 31:5]

; <label>:0                                       ; preds = %_ZN7_ap_sc_7sc_core4waitEi.exit, %_ZN7_ap_sc_7sc_core4waitEi.exit2
  %loop_begin = call i32 (...)* @_ssdm_op_SpecLoopBegin() nounwind ; [#uses=0 type=i32]
  call void (...)* @_ssdm_op_Wait(i32 1) nounwind, !dbg !5370 ; [debug line = 36:6]
  %blocker_512_write_do = call i1 @_ssdm_op_Read.ap_auto.i1P(i1* %blocker_512_write_done), !dbg !5373 ; [#uses=1 type=i1] [debug line = 36:48]
  call void (...)* @_ssdm_op_Poll(i1 %blocker_512_write_do), !dbg !5374 ; [debug line = 36:50]
  call void @_ssdm_op_Write.ap_auto.i1P(i1* %blocker_512_b_done, i1 false), !dbg !5375 ; [debug line = 37:3]
  br label %.loopexit, !dbg !5376                 ; [debug line = 39:17]

.loopexit.loopexit:                               ; preds = %.preheader
  br label %.loopexit

.loopexit:                                        ; preds = %.loopexit.loopexit, %0
  %j = phi i7 [ 0, %0 ], [ %j_2, %.loopexit.loopexit ] ; [#uses=3 type=i7]
  %exitcond2 = icmp eq i7 %j, -64, !dbg !5376     ; [#uses=1 type=i1] [debug line = 39:17]
  %empty_35 = call i32 (...)* @_ssdm_op_SpecLoopTripCount(i64 64, i64 64, i64 64) ; [#uses=0 type=i32]
  %j_2 = add i7 %j, 1, !dbg !5378                 ; [#uses=1 type=i7] [debug line = 39:34]
  call void @llvm.dbg.value(metadata !{i7 %j_2}, i64 0, metadata !5379), !dbg !5378 ; [debug line = 39:34] [debug variable = j]
  br i1 %exitcond2, label %_ZN7_ap_sc_7sc_core4waitEi.exit, label %.preheader.preheader, !dbg !5376 ; [debug line = 39:17]

.preheader.preheader:                             ; preds = %.loopexit
  %tmp_40 = trunc i7 %j to i6                     ; [#uses=1 type=i6]
  %tmp = call i9 @_ssdm_op_BitConcatenate.i9.i6.i3(i6 %tmp_40, i3 0), !dbg !5380 ; [#uses=1 type=i9] [debug line = 43:5]
  %tmp_cast = zext i9 %tmp to i12, !dbg !5380     ; [#uses=1 type=i12] [debug line = 43:5]
  br label %.preheader, !dbg !5384                ; [debug line = 41:18]

.preheader:                                       ; preds = %1, %.preheader.preheader
  %k = phi i7 [ %k_2, %1 ], [ 0, %.preheader.preheader ] ; [#uses=3 type=i7]
  %k_cast1 = zext i7 %k to i32, !dbg !5384        ; [#uses=1 type=i32] [debug line = 41:18]
  %exitcond = icmp eq i7 %k, -64, !dbg !5384      ; [#uses=1 type=i1] [debug line = 41:18]
  %empty_36 = call i32 (...)* @_ssdm_op_SpecLoopTripCount(i64 64, i64 64, i64 64) ; [#uses=0 type=i32]
  %k_2 = add i7 %k, 1, !dbg !5385                 ; [#uses=1 type=i7] [debug line = 41:29]
  br i1 %exitcond, label %.loopexit.loopexit, label %1, !dbg !5384 ; [debug line = 41:18]

; <label>:1                                       ; preds = %.preheader
  %block_pattern_addr = getelementptr [64 x i12]* @block_pattern, i32 0, i32 %k_cast1, !dbg !5380 ; [#uses=1 type=i12*] [debug line = 43:5]
  %block_pattern_load = load i12* %block_pattern_addr, align 2, !dbg !5380 ; [#uses=1 type=i12] [debug line = 43:5]
  %tmp_s = add i12 %block_pattern_load, %tmp_cast, !dbg !5380 ; [#uses=1 type=i12] [debug line = 43:5]
  %tmp_cast_37 = zext i12 %tmp_s to i32, !dbg !5380 ; [#uses=1 type=i32] [debug line = 43:5]
  %blocker_512_img_data = getelementptr [4096 x i8]* %blocker_512_img_data_V, i32 0, i32 %tmp_cast_37, !dbg !5386 ; [#uses=1 type=i8*] [debug line = 365:13@56:100@257:73@504:72@43:5]
  %blocker_512_img_data_1 = load i8* %blocker_512_img_data, align 1, !dbg !5386 ; [#uses=1 type=i8] [debug line = 365:13@56:100@257:73@504:72@43:5]
  call void @_ssdm_op_Write.ap_fifo.volatile.i8P(i8* %blocker_512_dout_m_if_Val_V, i8 %blocker_512_img_data_1), !dbg !5386 ; [debug line = 365:13@56:100@257:73@504:72@43:5]
  call void @llvm.dbg.value(metadata !{i7 %k_2}, i64 0, metadata !5390), !dbg !5385 ; [debug line = 41:29] [debug variable = k]
  br label %.preheader, !dbg !5385                ; [debug line = 41:29]

_ZN7_ap_sc_7sc_core4waitEi.exit:                  ; preds = %.loopexit
  call void @_ssdm_op_Write.ap_auto.i1P(i1* %blocker_512_write_done, i1 false), !dbg !5391 ; [debug line = 46:3]
  call void @llvm.dbg.value(metadata !{i1* %blocker_512_done_m_if_Val}, i64 0, metadata !1535), !dbg !5392 ; [debug line = 128:96@207:13@446:81@47:3] [debug variable = P]
  call void @_ssdm_op_Write.ap_auto.volatile.i1P(i1* %blocker_512_done_m_if_Val, i1 true), !dbg !5396 ; [debug line = 167:116@207:13@446:81@47:3]
  call void @_ssdm_op_Write.ap_auto.i1P(i1* %blocker_512_b_done, i1 true), !dbg !5397 ; [debug line = 48:3]
  call void (...)* @_ssdm_op_Wait(i32 1) nounwind, !dbg !5398 ; [debug line = 803:19@49:3]
  br label %0, !dbg !5400                         ; [debug line = 50:2]
}

; [#uses=0]
define weak void @"blocker_512::blocker_512"(i1* %blocker_512_clock_m_if_Val, i1* %blocker_512_reset_m_if_Val, i1* %blocker_512_start_m_if_Val, i1* %blocker_512_done_m_if_Val, i8* %blocker_512_dout_m_if_Val_V, i8* %blocker_512_din_m_if_Val_V, [4096 x i8]* %blocker_512_img_data_V, i1* %blocker_512_write_done, i1* %blocker_512_b_done) {
  call void (...)* @_ssdm_op_SpecBitsMap(i1* %blocker_512_clock_m_if_Val), !map !4226
  call void (...)* @_ssdm_op_SpecBitsMap(i1* %blocker_512_reset_m_if_Val), !map !4230
  call void (...)* @_ssdm_op_SpecBitsMap(i1* %blocker_512_start_m_if_Val), !map !4234
  call void (...)* @_ssdm_op_SpecBitsMap(i1* %blocker_512_done_m_if_Val), !map !4238
  call void (...)* @_ssdm_op_SpecBitsMap(i8* %blocker_512_dout_m_if_Val_V), !map !4242
  call void (...)* @_ssdm_op_SpecBitsMap(i8* %blocker_512_din_m_if_Val_V), !map !4246
  call void (...)* @_ssdm_op_SpecBitsMap([4096 x i8]* %blocker_512_img_data_V), !map !4250
  call void (...)* @_ssdm_op_SpecBitsMap(i1* %blocker_512_write_done), !map !4254
  call void (...)* @_ssdm_op_SpecBitsMap(i1* %blocker_512_b_done), !map !4258
  call void @llvm.dbg.value(metadata !{i1* %blocker_512_clock_m_if_Val}, i64 0, metadata !5401), !dbg !5404 ; [debug line = 22:3] [debug variable = blocker_512.clock.m_if.Val]
  call void @llvm.dbg.value(metadata !{i1* %blocker_512_reset_m_if_Val}, i64 0, metadata !5405), !dbg !5404 ; [debug line = 22:3] [debug variable = blocker_512.reset.m_if.Val]
  call void @llvm.dbg.value(metadata !{i1* %blocker_512_start_m_if_Val}, i64 0, metadata !5406), !dbg !5404 ; [debug line = 22:3] [debug variable = blocker_512.start.m_if.Val]
  call void @llvm.dbg.value(metadata !{i1* %blocker_512_done_m_if_Val}, i64 0, metadata !5407), !dbg !5404 ; [debug line = 22:3] [debug variable = blocker_512.done.m_if.Val]
  call void @llvm.dbg.value(metadata !{i8* %blocker_512_dout_m_if_Val_V}, i64 0, metadata !5408), !dbg !5404 ; [debug line = 22:3] [debug variable = blocker_512.dout.m_if.Val.V]
  call void @llvm.dbg.value(metadata !{i8* %blocker_512_din_m_if_Val_V}, i64 0, metadata !5409), !dbg !5404 ; [debug line = 22:3] [debug variable = blocker_512.din.m_if.Val.V]
  call void @llvm.dbg.value(metadata !{[4096 x i8]* %blocker_512_img_data_V}, i64 0, metadata !5410), !dbg !5404 ; [debug line = 22:3] [debug variable = blocker_512.img_data.V]
  call void @llvm.dbg.value(metadata !{i1* %blocker_512_write_done}, i64 0, metadata !5411), !dbg !5404 ; [debug line = 22:3] [debug variable = blocker_512.write_done]
  call void @llvm.dbg.value(metadata !{i1* %blocker_512_b_done}, i64 0, metadata !5412), !dbg !5404 ; [debug line = 22:3] [debug variable = blocker_512.b_done]
  call void @llvm.dbg.value(metadata !{i8* %blocker_512_dout_m_if_Val_V}, i64 0, metadata !5413), !dbg !5416 ; [debug line = 502:18@23:2] [debug variable = sc_port_b<_ap_sc_::sc_core::sc_fifo_out_if<_ap_sc_::sc_dt::sc_uint<8> > >.m_if.Val.V]
  call void @llvm.dbg.value(metadata !{i8* %blocker_512_dout_m_if_Val_V}, i64 0, metadata !5417), !dbg !5420 ; [debug line = 502:18@502:34@23:2] [debug variable = sc_port_b<_ap_sc_::sc_core::sc_fifo_out_if<_ap_sc_::sc_dt::sc_uint<8> > >.m_if.Val.V]
  call void @llvm.dbg.value(metadata !{i8* %blocker_512_dout_m_if_Val_V}, i64 0, metadata !5421), !dbg !5425 ; [debug line = 252:47@285:68@502:32@502:34@23:2] [debug variable = sc_fifo_out_if<_ap_sc_::sc_dt::sc_uint<8> >.Val.V]
  call void @llvm.dbg.value(metadata !{i8* %blocker_512_dout_m_if_Val_V}, i64 0, metadata !5426), !dbg !5429 ; [debug line = 252:47@255:9@285:68@502:32@502:34@23:2] [debug variable = sc_fifo_out_if<_ap_sc_::sc_dt::sc_uint<8> >.Val.V]
  call void (...)* @_ssdm_op_SpecInterface(i8* %blocker_512_dout_m_if_Val_V, [8 x i8]* @p_str6, i32 0, i32 0, [1 x i8]* @p_str7, i32 0, i32 0, [1 x i8]* @p_str7, [1 x i8]* @p_str7, [1 x i8]* @p_str7, i32 0, i32 0, i32 0, i32 0, [1 x i8]* @p_str7, [1 x i8]* @p_str7) nounwind, !dbg !5430 ; [debug line = 253:13@255:9@285:68@502:32@502:34@23:2]
  call void (...)* @_ssdm_op_SpecPort([1 x i8]* @p_str7, i32 5, [1 x i8]* @p_str7, [1 x i8]* @p_str7, i32 0, i32 0, i8* %blocker_512_dout_m_if_Val_V) nounwind, !dbg !5431 ; [debug line = 254:13@255:9@285:68@502:32@502:34@23:2]
  call void @llvm.dbg.value(metadata !{i8* %blocker_512_din_m_if_Val_V}, i64 0, metadata !5432), !dbg !5434 ; [debug line = 490:18@23:2] [debug variable = sc_port_b<_ap_sc_::sc_core::sc_fifo_in_if<_ap_sc_::sc_dt::sc_uint<8> > >.m_if.Val.V]
  call void @llvm.dbg.value(metadata !{i8* %blocker_512_din_m_if_Val_V}, i64 0, metadata !5435), !dbg !5438 ; [debug line = 490:18@490:33@23:2] [debug variable = sc_port_b<_ap_sc_::sc_core::sc_fifo_in_if<_ap_sc_::sc_dt::sc_uint<8> > >.m_if.Val.V]
  call void @llvm.dbg.value(metadata !{i8* %blocker_512_din_m_if_Val_V}, i64 0, metadata !5439), !dbg !5443 ; [debug line = 229:47@285:68@490:31@490:33@23:2] [debug variable = sc_fifo_in_if<_ap_sc_::sc_dt::sc_uint<8> >.Val.V]
  call void @llvm.dbg.value(metadata !{i8* %blocker_512_din_m_if_Val_V}, i64 0, metadata !5444), !dbg !5447 ; [debug line = 229:47@232:9@285:68@490:31@490:33@23:2] [debug variable = sc_fifo_in_if<_ap_sc_::sc_dt::sc_uint<8> >.Val.V]
  call void (...)* @_ssdm_op_SpecInterface(i8* %blocker_512_din_m_if_Val_V, [8 x i8]* @p_str6, i32 0, i32 0, [1 x i8]* @p_str7, i32 0, i32 0, [1 x i8]* @p_str7, [1 x i8]* @p_str7, [1 x i8]* @p_str7, i32 0, i32 0, i32 0, i32 0, [1 x i8]* @p_str7, [1 x i8]* @p_str7) nounwind, !dbg !5448 ; [debug line = 230:12@232:9@285:68@490:31@490:33@23:2]
  call void (...)* @_ssdm_op_SpecPort([1 x i8]* @p_str7, i32 4, [1 x i8]* @p_str7, [1 x i8]* @p_str7, i32 0, i32 0, i8* %blocker_512_din_m_if_Val_V) nounwind, !dbg !5449 ; [debug line = 231:12@232:9@285:68@490:31@490:33@23:2]
  call void (...)* @_ssdm_op_SpecTopModule([12 x i8]* @p_str80, [12 x i8]* @p_str80) nounwind, !dbg !5450 ; [debug line = 24:5]
  %blocker_512_ssdm_s = load i1* @blocker_512_ssdm_thread_M_blocker_buffer, align 1, !dbg !5452 ; [#uses=1 type=i1] [debug line = 25:5]
  br i1 %blocker_512_ssdm_s, label %1, label %2, !dbg !5452 ; [debug line = 25:5]

; <label>:1                                       ; preds = %0
  call void @"blocker_512::blocker_buffer"(i1* %blocker_512_clock_m_if_Val, i1* %blocker_512_reset_m_if_Val, i1* %blocker_512_start_m_if_Val, i1* %blocker_512_done_m_if_Val, i8* %blocker_512_dout_m_if_Val_V, i8* %blocker_512_din_m_if_Val_V, [4096 x i8]* %blocker_512_img_data_V, i1* %blocker_512_write_done, i1* %blocker_512_b_done), !dbg !5453 ; [debug line = 25:41]
  br label %UnifiedUnreachableBlock

; <label>:2                                       ; preds = %0
  call void (...)* @_ssdm_op_SpecProcessDecl([12 x i8]* @p_str80, i32 2, [15 x i8]* @p_str888) nounwind, !dbg !5454 ; [debug line = 25:59]
  call void (...)* @_ssdm_op_SpecSensitive([15 x i8]* @p_str888, [6 x i8]* @p_str282, i1* %blocker_512_clock_m_if_Val, i32 1) nounwind, !dbg !5455 ; [debug line = 26:5]
  call void (...)* @_ssdm_op_SpecSensitive([15 x i8]* @p_str888, [6 x i8]* @p_str383, i1* %blocker_512_reset_m_if_Val, i32 3) nounwind, !dbg !5456 ; [debug line = 27:5]
  %blocker_512_ssdm_1 = load i1* @blocker_512_ssdm_thread_M_blocker_512_main, align 1, !dbg !5457 ; [#uses=1 type=i1] [debug line = 28:5]
  br i1 %blocker_512_ssdm_1, label %3, label %4, !dbg !5457 ; [debug line = 28:5]

; <label>:3                                       ; preds = %2
  call void @"blocker_512::blocker_512_main"(i1* %blocker_512_clock_m_if_Val, i1* %blocker_512_reset_m_if_Val, i1* %blocker_512_start_m_if_Val, i1* %blocker_512_done_m_if_Val, i8* %blocker_512_dout_m_if_Val_V, i8* %blocker_512_din_m_if_Val_V, [4096 x i8]* %blocker_512_img_data_V, i1* %blocker_512_write_done, i1* %blocker_512_b_done), !dbg !5458 ; [debug line = 28:43]
  br label %UnifiedUnreachableBlock

; <label>:4                                       ; preds = %2
  call void (...)* @_ssdm_op_SpecProcessDecl([12 x i8]* @p_str80, i32 2, [17 x i8]* @p_str1898) nounwind, !dbg !5459 ; [debug line = 28:63]
  call void (...)* @_ssdm_op_SpecSensitive([17 x i8]* @p_str1898, [6 x i8]* @p_str282, i1* %blocker_512_clock_m_if_Val, i32 1) nounwind, !dbg !5460 ; [debug line = 29:5]
  call void (...)* @_ssdm_op_SpecSensitive([17 x i8]* @p_str1898, [6 x i8]* @p_str383, i1* %blocker_512_reset_m_if_Val, i32 3) nounwind, !dbg !5461 ; [debug line = 30:5]
  call void (...)* @_ssdm_op_SpecPort([12 x i8]* @p_str80, i32 0, [7 x i8]* @p_str181, [6 x i8]* @p_str282, i32 0, i32 0, i1* %blocker_512_clock_m_if_Val) nounwind, !dbg !5462 ; [debug line = 31:5]
  call void (...)* @_ssdm_op_SpecPort([12 x i8]* @p_str80, i32 0, [7 x i8]* @p_str181, [6 x i8]* @p_str383, i32 0, i32 0, i1* %blocker_512_reset_m_if_Val) nounwind, !dbg !5463 ; [debug line = 32:5]
  call void (...)* @_ssdm_op_SpecPort([12 x i8]* @p_str80, i32 0, [7 x i8]* @p_str181, [6 x i8]* @p_str484, i32 0, i32 0, i1* %blocker_512_start_m_if_Val) nounwind, !dbg !5464 ; [debug line = 33:5]
  call void (...)* @_ssdm_op_SpecPort([12 x i8]* @p_str80, i32 1, [7 x i8]* @p_str181, [5 x i8]* @p_str585, i32 0, i32 0, i1* %blocker_512_done_m_if_Val) nounwind, !dbg !5465 ; [debug line = 34:5]
  call void (...)* @_ssdm_op_SpecInterface(i8* %blocker_512_dout_m_if_Val_V, [8 x i8]* @p_str686, i32 0, i32 0, [1 x i8]* @p_str787, i32 0, i32 0, [1 x i8]* @p_str787, [1 x i8]* @p_str787, [1 x i8]* @p_str787, i32 0, i32 0, i32 0, i32 0, [1 x i8]* @p_str787, [1 x i8]* @p_str787) nounwind, !dbg !5466 ; [debug line = 35:5]
  call void (...)* @_ssdm_op_SpecPort([12 x i8]* @p_str80, i32 5, [13 x i8]* @p_str22101, [5 x i8]* @p_str1191, i32 0, i32 0, i8* %blocker_512_dout_m_if_Val_V) nounwind, !dbg !5467 ; [debug line = 36:5]
  call void (...)* @_ssdm_op_SpecInterface(i8* %blocker_512_din_m_if_Val_V, [8 x i8]* @p_str686, i32 0, i32 0, [1 x i8]* @p_str787, i32 0, i32 0, [1 x i8]* @p_str787, [1 x i8]* @p_str787, [1 x i8]* @p_str787, i32 0, i32 0, i32 0, i32 0, [1 x i8]* @p_str787, [1 x i8]* @p_str787) nounwind, !dbg !5468 ; [debug line = 37:5]
  call void (...)* @_ssdm_op_SpecPort([12 x i8]* @p_str80, i32 4, [13 x i8]* @p_str22101, [4 x i8]* @p_str1292, i32 0, i32 0, i8* %blocker_512_din_m_if_Val_V) nounwind, !dbg !5469 ; [debug line = 38:5]
  ret void, !dbg !5470                            ; [debug line = 36:1]

UnifiedUnreachableBlock:                          ; preds = %3, %1
  unreachable
}

; [#uses=4]
define weak void @_ssdm_op_Write.ap_fifo.volatile.i8P(i8*, i8) {
entry:
  %empty = call i8 @_autotb_FifoWrite_i8(i8* %0, i8 %1) ; [#uses=0 type=i8]
  ret void
}

; [#uses=8]
define weak void @_ssdm_op_Write.ap_auto.volatile.i1P(i1*, i1) {
entry:
  store i1 %1, i1* %0
  ret void
}

; [#uses=4]
define weak void @_ssdm_op_Write.ap_auto.i32P(i32*, i32) {
entry:
  store i32 %1, i32* %0
  ret void
}

; [#uses=18]
define weak void @_ssdm_op_Write.ap_auto.i1P(i1*, i1) {
entry:
  store i1 %1, i1* %0
  ret void
}

; [#uses=26]
define weak void @_ssdm_op_Wait(...) nounwind {
entry:
  ret void
}

; [#uses=4]
define weak void @_ssdm_op_SpecTopModule(...) nounwind {
entry:
  ret void
}

; [#uses=8]
define weak i32 @_ssdm_op_SpecStateEnd(...) nounwind {
entry:
  ret i32 0
}

; [#uses=8]
define weak i32 @_ssdm_op_SpecStateBegin(...) nounwind {
entry:
  ret i32 0
}

; [#uses=16]
define weak void @_ssdm_op_SpecSensitive(...) nounwind {
entry:
  ret void
}

; [#uses=8]
define weak i32 @_ssdm_op_SpecRegionEnd(...) {
entry:
  ret i32 0
}

; [#uses=8]
define weak i32 @_ssdm_op_SpecRegionBegin(...) {
entry:
  ret i32 0
}

; [#uses=8]
define weak void @_ssdm_op_SpecProtocol(...) nounwind {
entry:
  ret void
}

; [#uses=8]
define weak void @_ssdm_op_SpecProcessDef(...) nounwind {
entry:
  ret void
}

; [#uses=8]
define weak void @_ssdm_op_SpecProcessDecl(...) nounwind {
entry:
  ret void
}

; [#uses=64]
define weak void @_ssdm_op_SpecPort(...) nounwind {
entry:
  ret void
}

; [#uses=19]
define weak i32 @_ssdm_op_SpecLoopTripCount(...) {
entry:
  ret i32 0
}

; [#uses=8]
define weak i32 @_ssdm_op_SpecLoopBegin(...) {
entry:
  ret i32 0
}

; [#uses=32]
define weak void @_ssdm_op_SpecInterface(...) nounwind {
entry:
  ret void
}

; [#uses=114]
define weak void @_ssdm_op_SpecBitsMap(...) {
entry:
  ret void
}

; [#uses=4]
define weak i8 @_ssdm_op_Read.ap_fifo.volatile.i8P(i8*) {
entry:
  %empty = call i8 @_autotb_FifoRead_i8(i8* %0)   ; [#uses=1 type=i8]
  ret i8 %empty
}

; [#uses=2]
define weak i32 @_ssdm_op_Read.ap_auto.i32P(i32*) {
entry:
  %empty = load i32* %0                           ; [#uses=1 type=i32]
  ret i32 %empty
}

; [#uses=6]
define weak i1 @_ssdm_op_Read.ap_auto.i1P(i1*) {
entry:
  %empty = load i1* %0                            ; [#uses=1 type=i1]
  ret i1 %empty
}

; [#uses=10]
define weak void @_ssdm_op_Poll(...) nounwind {
entry:
  ret void
}

; [#uses=4]
define weak i8 @_ssdm_op_PartSelect.i8.i32.i32.i32(i32, i32, i32) nounwind readnone {
entry:
  %empty = call i32 @llvm.part.select.i32(i32 %0, i32 %1, i32 %2) ; [#uses=1 type=i32]
  %empty_38 = trunc i32 %empty to i8              ; [#uses=1 type=i8]
  ret i8 %empty_38
}

; [#uses=0]
declare i6 @_ssdm_op_PartSelect.i6.i7.i32.i32(i7, i32, i32) nounwind readnone

; [#uses=0]
declare i3 @_ssdm_op_PartSelect.i3.i4.i32.i32(i4, i32, i32) nounwind readnone

; [#uses=0]
declare i29 @_ssdm_op_PartSelect.i29.i32.i32.i32(i32, i32, i32) nounwind readnone

; [#uses=4]
define weak i1 @_ssdm_op_NbReadReq.ap_fifo.i8P(i8*, i32) {
entry:
  %empty = call i1 @_autotb_FifoCanRead_i8(i8* %0) ; [#uses=1 type=i1]
  ret i1 %empty
}

; [#uses=2]
define weak i1 @_ssdm_op_BitSelect.i1.i32.i32(i32, i32) nounwind readnone {
entry:
  %empty = shl i32 1, %1                          ; [#uses=1 type=i32]
  %empty_39 = and i32 %0, %empty                  ; [#uses=1 type=i32]
  %empty_40 = icmp ne i32 %empty_39, 0            ; [#uses=1 type=i1]
  ret i1 %empty_40
}

; [#uses=1]
define weak i9 @_ssdm_op_BitConcatenate.i9.i6.i3(i6, i3) nounwind readnone {
entry:
  %empty = zext i6 %0 to i9                       ; [#uses=1 type=i9]
  %empty_41 = zext i3 %1 to i9                    ; [#uses=1 type=i9]
  %empty_42 = shl i9 %empty, 3                    ; [#uses=1 type=i9]
  %empty_43 = or i9 %empty_42, %empty_41          ; [#uses=1 type=i9]
  ret i9 %empty_43
}

; [#uses=9]
define weak i6 @_ssdm_op_BitConcatenate.i6.i3.i3(i3, i3) nounwind readnone {
entry:
  %empty = zext i3 %0 to i6                       ; [#uses=1 type=i6]
  %empty_44 = zext i3 %1 to i6                    ; [#uses=1 type=i6]
  %empty_45 = shl i6 %empty, 3                    ; [#uses=1 type=i6]
  %empty_46 = or i6 %empty_45, %empty_44          ; [#uses=1 type=i6]
  ret i6 %empty_46
}

; [#uses=0]
declare i32 @_ssdm_op_BitConcatenate.i32.i29.i3(i29, i3) nounwind readnone

; [#uses=1]
define weak i12 @_ssdm_op_BitConcatenate.i12.i6.i6(i6, i6) nounwind readnone {
entry:
  %empty = zext i6 %0 to i12                      ; [#uses=1 type=i12]
  %empty_47 = zext i6 %1 to i12                   ; [#uses=1 type=i12]
  %empty_48 = shl i12 %empty, 6                   ; [#uses=1 type=i12]
  %empty_49 = or i12 %empty_48, %empty_47         ; [#uses=1 type=i12]
  ret i12 %empty_49
}

; [#uses=1]
declare i8 @_autotb_FifoWrite_i8(i8*, i8)

; [#uses=1]
declare i8 @_autotb_FifoRead_i8(i8*)

; [#uses=1]
declare i1 @_autotb_FifoCanRead_i8(i8*)

; [#uses=1]
declare void @_GLOBAL__I_a78() nounwind

; [#uses=1]
declare void @_GLOBAL__I_a52() nounwind

; [#uses=1]
declare void @_GLOBAL__I_a132() nounwind

; [#uses=1]
declare void @_GLOBAL__I_a106() nounwind

; [#uses=1]
declare void @_GLOBAL__I_a() nounwind

!opencl.kernels = !{!0, !0, !7, !7, !13, !0, !15, !17, !19, !25, !27, !29, !31, !0, !0, !0, !33, !36, !0, !0, !0, !0, !0, !38, !40, !40, !45, !45, !0, !0, !0, !47, !47, !0, !0, !0, !0, !0, !47, !47, !0, !0, !0, !0, !0, !0, !0, !0, !0, !0, !0, !0, !0, !49, !0, !0, !7, !7, !13, !0, !15, !17, !19, !25, !27, !29, !31, !0, !0, !0, !33, !36, !0, !0, !0, !0, !0, !38, !40, !40, !45, !45, !0, !0, !0, !47, !47, !0, !0, !0, !0, !0, !47, !47, !0, !0, !0, !0, !0, !0, !0, !0, !0, !0, !0, !0, !0, !49, !0, !0, !15, !17, !19, !25, !27, !29, !31, !25, !0, !0, !33, !36, !0, !0, !0, !0, !0, !0, !38, !40, !40, !45, !45, !0, !0, !0, !47, !47, !0, !0, !0, !0, !0, !47, !47, !0, !0, !0, !0, !0, !0, !0, !0, !0, !0, !0, !49, !0, !0, !15, !17, !19, !25, !27, !29, !31, !25, !0, !0, !33, !36, !0, !0, !0, !0, !0, !0, !38, !40, !40, !45, !45, !0, !0, !0, !47, !47, !0, !0, !0, !0, !0, !47, !47, !0, !0, !0, !0, !0, !0, !0, !0, !0, !0, !0, !49, !0, !45, !45, !0, !0, !0, !47, !47, !0, !0, !0, !0, !0, !0, !0, !0, !0, !47, !47, !0, !0, !0, !0, !0, !0, !0, !0, !0, !0, !0, !45, !45, !45, !45, !40, !40, !45, !45}
!hls.encrypted.func = !{}
!llvm.map.gv = !{!51, !58, !63, !68, !75, !80, !85, !90, !95, !100, !105, !110, !115, !120, !125, !130, !135, !140, !145, !150, !155, !160, !165, !170, !177, !182, !187, !192, !197, !202, !207, !212, !217, !222, !227, !232, !237, !242, !247, !252, !257, !262, !267, !274, !279, !284, !289}

!0 = metadata !{null, metadata !1, metadata !2, metadata !3, metadata !4, metadata !5, metadata !6}
!1 = metadata !{metadata !"kernel_arg_addr_space"}
!2 = metadata !{metadata !"kernel_arg_access_qual"}
!3 = metadata !{metadata !"kernel_arg_type"}
!4 = metadata !{metadata !"kernel_arg_type_qual"}
!5 = metadata !{metadata !"kernel_arg_name"}
!6 = metadata !{metadata !"reqd_work_group_size", i32 1, i32 1, i32 1}
!7 = metadata !{null, metadata !8, metadata !9, metadata !10, metadata !11, metadata !12, metadata !6}
!8 = metadata !{metadata !"kernel_arg_addr_space", i32 0}
!9 = metadata !{metadata !"kernel_arg_access_qual", metadata !"none"}
!10 = metadata !{metadata !"kernel_arg_type", metadata !"int"}
!11 = metadata !{metadata !"kernel_arg_type_qual", metadata !""}
!12 = metadata !{metadata !"kernel_arg_name", metadata !"v"}
!13 = metadata !{null, metadata !8, metadata !9, metadata !10, metadata !11, metadata !14, metadata !6}
!14 = metadata !{metadata !"kernel_arg_name", metadata !"op"}
!15 = metadata !{null, metadata !8, metadata !9, metadata !16, metadata !11, metadata !12, metadata !6}
!16 = metadata !{metadata !"kernel_arg_type", metadata !"const struct _ap_sc_::sc_dt::sc_uint<8> &"}
!17 = metadata !{null, metadata !8, metadata !9, metadata !16, metadata !11, metadata !18, metadata !6}
!18 = metadata !{metadata !"kernel_arg_name", metadata !"t"}
!19 = metadata !{null, metadata !20, metadata !21, metadata !22, metadata !23, metadata !24, metadata !6}
!20 = metadata !{metadata !"kernel_arg_addr_space", i32 0, i32 0}
!21 = metadata !{metadata !"kernel_arg_access_qual", metadata !"none", metadata !"none"}
!22 = metadata !{metadata !"kernel_arg_type", metadata !"volatile sc_uint<8> &", metadata !"const struct _ap_sc_::sc_dt::sc_uint<8> &"}
!23 = metadata !{metadata !"kernel_arg_type_qual", metadata !"", metadata !""}
!24 = metadata !{metadata !"kernel_arg_name", metadata !"P", metadata !"val"}
!25 = metadata !{null, metadata !8, metadata !9, metadata !16, metadata !11, metadata !26, metadata !6}
!26 = metadata !{metadata !"kernel_arg_name", metadata !"op2"}
!27 = metadata !{null, metadata !8, metadata !9, metadata !28, metadata !11, metadata !12, metadata !6}
!28 = metadata !{metadata !"kernel_arg_type", metadata !"const _Bool &"}
!29 = metadata !{null, metadata !8, metadata !9, metadata !28, metadata !11, metadata !30, metadata !6}
!30 = metadata !{metadata !"kernel_arg_name", metadata !"v2"}
!31 = metadata !{null, metadata !20, metadata !21, metadata !32, metadata !23, metadata !24, metadata !6}
!32 = metadata !{metadata !"kernel_arg_type", metadata !"volatile _Bool &", metadata !"const _Bool &"}
!33 = metadata !{null, metadata !8, metadata !9, metadata !34, metadata !11, metadata !35, metadata !6}
!34 = metadata !{metadata !"kernel_arg_type", metadata !"volatile sc_uint<8> &"}
!35 = metadata !{metadata !"kernel_arg_name", metadata !"P"}
!36 = metadata !{null, metadata !8, metadata !9, metadata !37, metadata !11, metadata !26, metadata !6}
!37 = metadata !{metadata !"kernel_arg_type", metadata !"const volatile struct _ap_sc_::sc_dt::sc_uint<8> &"}
!38 = metadata !{null, metadata !8, metadata !9, metadata !39, metadata !11, metadata !35, metadata !6}
!39 = metadata !{metadata !"kernel_arg_type", metadata !"volatile const struct _ap_sc_::sc_dt::sc_uint<8> &"}
!40 = metadata !{null, metadata !41, metadata !9, metadata !42, metadata !43, metadata !44, metadata !6}
!41 = metadata !{metadata !"kernel_arg_addr_space", i32 1}
!42 = metadata !{metadata !"kernel_arg_type", metadata !"char*"}
!43 = metadata !{metadata !"kernel_arg_type_qual", metadata !"const"}
!44 = metadata !{metadata !"kernel_arg_name", metadata !""}
!45 = metadata !{null, metadata !8, metadata !9, metadata !46, metadata !11, metadata !44, metadata !6}
!46 = metadata !{metadata !"kernel_arg_type", metadata !"::sc_core::sc_module_name"}
!47 = metadata !{null, metadata !41, metadata !9, metadata !42, metadata !43, metadata !48, metadata !6}
!48 = metadata !{metadata !"kernel_arg_name", metadata !"name_"}
!49 = metadata !{null, metadata !8, metadata !9, metadata !10, metadata !11, metadata !50, metadata !6}
!50 = metadata !{metadata !"kernel_arg_name", metadata !"n"}
!51 = metadata !{metadata !52, i1* @ssdm_ins_sc_FIFO_IDC}
!52 = metadata !{metadata !53}
!53 = metadata !{i32 0, i32 0, metadata !54}
!54 = metadata !{metadata !55}
!55 = metadata !{metadata !"ssdm_ins_sc_FIFO_IDCT_4_0.write_done", metadata !56, metadata !"bool", i32 0, i32 0}
!56 = metadata !{metadata !57}
!57 = metadata !{i32 0, i32 0, i32 1}
!58 = metadata !{metadata !59, i1* @ssdm_ins_sc_FIFO_IDC_20}
!59 = metadata !{metadata !60}
!60 = metadata !{i32 0, i32 0, metadata !61}
!61 = metadata !{metadata !62}
!62 = metadata !{metadata !"ssdm_ins_sc_FIFO_IDCT_4_0.start.m_if.Val", metadata !56, metadata !"bool", i32 0, i32 0}
!63 = metadata !{metadata !64, i1* @ssdm_ins_sc_FIFO_IDC_4}
!64 = metadata !{metadata !65}
!65 = metadata !{i32 0, i32 0, metadata !66}
!66 = metadata !{metadata !67}
!67 = metadata !{metadata !"ssdm_ins_sc_FIFO_IDCT_4_0.reset.m_if.Val", metadata !56, metadata !"bool", i32 0, i32 0}
!68 = metadata !{metadata !69, [100 x i32]* @ssdm_ins_sc_FIFO_IDC_3}
!69 = metadata !{metadata !70}
!70 = metadata !{i32 0, i32 31, metadata !71}
!71 = metadata !{metadata !72}
!72 = metadata !{metadata !"ssdm_ins_sc_FIFO_IDCT_4_0.mB", metadata !73, metadata !"int", i32 0, i32 31}
!73 = metadata !{metadata !74}
!74 = metadata !{i32 0, i32 99, i32 1}
!75 = metadata !{metadata !76, [100 x i32]* @ssdm_ins_sc_FIFO_IDC_1}
!76 = metadata !{metadata !77}
!77 = metadata !{i32 0, i32 31, metadata !78}
!78 = metadata !{metadata !79}
!79 = metadata !{metadata !"ssdm_ins_sc_FIFO_IDCT_4_0.mA", metadata !73, metadata !"int", i32 0, i32 31}
!80 = metadata !{metadata !81, i32* @ssdm_ins_sc_FIFO_IDC_25}
!81 = metadata !{metadata !82}
!82 = metadata !{i32 0, i32 31, metadata !83}
!83 = metadata !{metadata !84}
!84 = metadata !{metadata !"ssdm_ins_sc_FIFO_IDCT_4_0.exec_cnt", metadata !56, metadata !"int", i32 0, i32 31}
!85 = metadata !{metadata !86, i8* @ssdm_ins_sc_FIFO_IDC_24}
!86 = metadata !{metadata !87}
!87 = metadata !{i32 0, i32 7, metadata !88}
!88 = metadata !{metadata !89}
!89 = metadata !{metadata !"ssdm_ins_sc_FIFO_IDCT_4_0.dout.m_if.Val.V", metadata !56, metadata !"uint8", i32 0, i32 7}
!90 = metadata !{metadata !91, i1* @ssdm_ins_sc_FIFO_IDC_23}
!91 = metadata !{metadata !92}
!92 = metadata !{i32 0, i32 0, metadata !93}
!93 = metadata !{metadata !94}
!94 = metadata !{metadata !"ssdm_ins_sc_FIFO_IDCT_4_0.done.m_if.Val", metadata !56, metadata !"bool", i32 0, i32 0}
!95 = metadata !{metadata !96, i8* @ssdm_ins_sc_FIFO_IDC_22}
!96 = metadata !{metadata !97}
!97 = metadata !{i32 0, i32 7, metadata !98}
!98 = metadata !{metadata !99}
!99 = metadata !{metadata !"ssdm_ins_sc_FIFO_IDCT_4_0.din.m_if.Val.V", metadata !56, metadata !"uint8", i32 0, i32 7}
!100 = metadata !{metadata !101, i1* @ssdm_ins_sc_FIFO_IDC_21}
!101 = metadata !{metadata !102}
!102 = metadata !{i32 0, i32 0, metadata !103}
!103 = metadata !{metadata !104}
!104 = metadata !{metadata !"ssdm_ins_sc_FIFO_IDCT_4_0.clock.m_if.Val", metadata !56, metadata !"bool", i32 0, i32 0}
!105 = metadata !{metadata !106, i1* @ssdm_ins_sc_FIFO_DCT}
!106 = metadata !{metadata !107}
!107 = metadata !{i32 0, i32 0, metadata !108}
!108 = metadata !{metadata !109}
!109 = metadata !{metadata !"ssdm_ins_sc_FIFO_DCT_4_0.write_done", metadata !56, metadata !"bool", i32 0, i32 0}
!110 = metadata !{metadata !111, i1* @ssdm_ins_sc_FIFO_DCT_20}
!111 = metadata !{metadata !112}
!112 = metadata !{i32 0, i32 0, metadata !113}
!113 = metadata !{metadata !114}
!114 = metadata !{metadata !"ssdm_ins_sc_FIFO_DCT_4_0.start.m_if.Val", metadata !56, metadata !"bool", i32 0, i32 0}
!115 = metadata !{metadata !116, i1* @ssdm_ins_sc_FIFO_DCT_4}
!116 = metadata !{metadata !117}
!117 = metadata !{i32 0, i32 0, metadata !118}
!118 = metadata !{metadata !119}
!119 = metadata !{metadata !"ssdm_ins_sc_FIFO_DCT_4_0.reset.m_if.Val", metadata !56, metadata !"bool", i32 0, i32 0}
!120 = metadata !{metadata !121, [100 x i32]* @ssdm_ins_sc_FIFO_DCT_3}
!121 = metadata !{metadata !122}
!122 = metadata !{i32 0, i32 31, metadata !123}
!123 = metadata !{metadata !124}
!124 = metadata !{metadata !"ssdm_ins_sc_FIFO_DCT_4_0.mB", metadata !73, metadata !"int", i32 0, i32 31}
!125 = metadata !{metadata !126, [100 x i32]* @ssdm_ins_sc_FIFO_DCT_1}
!126 = metadata !{metadata !127}
!127 = metadata !{i32 0, i32 31, metadata !128}
!128 = metadata !{metadata !129}
!129 = metadata !{metadata !"ssdm_ins_sc_FIFO_DCT_4_0.mA", metadata !73, metadata !"int", i32 0, i32 31}
!130 = metadata !{metadata !131, i32* @ssdm_ins_sc_FIFO_DCT_25}
!131 = metadata !{metadata !132}
!132 = metadata !{i32 0, i32 31, metadata !133}
!133 = metadata !{metadata !134}
!134 = metadata !{metadata !"ssdm_ins_sc_FIFO_DCT_4_0.exec_cnt", metadata !56, metadata !"int", i32 0, i32 31}
!135 = metadata !{metadata !136, i8* @ssdm_ins_sc_FIFO_DCT_24}
!136 = metadata !{metadata !137}
!137 = metadata !{i32 0, i32 7, metadata !138}
!138 = metadata !{metadata !139}
!139 = metadata !{metadata !"ssdm_ins_sc_FIFO_DCT_4_0.dout.m_if.Val.V", metadata !56, metadata !"uint8", i32 0, i32 7}
!140 = metadata !{metadata !141, i1* @ssdm_ins_sc_FIFO_DCT_23}
!141 = metadata !{metadata !142}
!142 = metadata !{i32 0, i32 0, metadata !143}
!143 = metadata !{metadata !144}
!144 = metadata !{metadata !"ssdm_ins_sc_FIFO_DCT_4_0.done.m_if.Val", metadata !56, metadata !"bool", i32 0, i32 0}
!145 = metadata !{metadata !146, i8* @ssdm_ins_sc_FIFO_DCT_22}
!146 = metadata !{metadata !147}
!147 = metadata !{i32 0, i32 7, metadata !148}
!148 = metadata !{metadata !149}
!149 = metadata !{metadata !"ssdm_ins_sc_FIFO_DCT_4_0.din.m_if.Val.V", metadata !56, metadata !"uint8", i32 0, i32 7}
!150 = metadata !{metadata !151, i1* @ssdm_ins_sc_FIFO_DCT_21}
!151 = metadata !{metadata !152}
!152 = metadata !{i32 0, i32 0, metadata !153}
!153 = metadata !{metadata !154}
!154 = metadata !{metadata !"ssdm_ins_sc_FIFO_DCT_4_0.clock.m_if.Val", metadata !56, metadata !"bool", i32 0, i32 0}
!155 = metadata !{metadata !156, i1* @ssdm_ins_imager_512_s}
!156 = metadata !{metadata !157}
!157 = metadata !{i32 0, i32 0, metadata !158}
!158 = metadata !{metadata !159}
!159 = metadata !{metadata !"ssdm_ins_imager_512_4_0.write_done", metadata !56, metadata !"bool", i32 0, i32 0}
!160 = metadata !{metadata !161, i1* @ssdm_ins_imager_512_17}
!161 = metadata !{metadata !162}
!162 = metadata !{i32 0, i32 0, metadata !163}
!163 = metadata !{metadata !164}
!164 = metadata !{metadata !"ssdm_ins_imager_512_4_0.start.m_if.Val", metadata !56, metadata !"bool", i32 0, i32 0}
!165 = metadata !{metadata !166, i1* @ssdm_ins_imager_512_4}
!166 = metadata !{metadata !167}
!167 = metadata !{i32 0, i32 0, metadata !168}
!168 = metadata !{metadata !169}
!169 = metadata !{metadata !"ssdm_ins_imager_512_4_0.reset.m_if.Val", metadata !56, metadata !"bool", i32 0, i32 0}
!170 = metadata !{metadata !171, [4096 x i8]* @ssdm_ins_imager_512_3}
!171 = metadata !{metadata !172}
!172 = metadata !{i32 0, i32 7, metadata !173}
!173 = metadata !{metadata !174}
!174 = metadata !{metadata !"ssdm_ins_imager_512_4_0.img_data.V", metadata !175, metadata !"uint8", i32 0, i32 7}
!175 = metadata !{metadata !176}
!176 = metadata !{i32 0, i32 4095, i32 1}
!177 = metadata !{metadata !178, i8* @ssdm_ins_imager_512_1}
!178 = metadata !{metadata !179}
!179 = metadata !{i32 0, i32 7, metadata !180}
!180 = metadata !{metadata !181}
!181 = metadata !{metadata !"ssdm_ins_imager_512_4_0.dout.m_if.Val.V", metadata !56, metadata !"uint8", i32 0, i32 7}
!182 = metadata !{metadata !183, i1* @ssdm_ins_imager_512_22}
!183 = metadata !{metadata !184}
!184 = metadata !{i32 0, i32 0, metadata !185}
!185 = metadata !{metadata !186}
!186 = metadata !{metadata !"ssdm_ins_imager_512_4_0.done.m_if.Val", metadata !56, metadata !"bool", i32 0, i32 0}
!187 = metadata !{metadata !188, i8* @ssdm_ins_imager_512_21}
!188 = metadata !{metadata !189}
!189 = metadata !{i32 0, i32 7, metadata !190}
!190 = metadata !{metadata !191}
!191 = metadata !{metadata !"ssdm_ins_imager_512_4_0.din.m_if.Val.V", metadata !56, metadata !"uint8", i32 0, i32 7}
!192 = metadata !{metadata !193, i1* @ssdm_ins_imager_512_20}
!193 = metadata !{metadata !194}
!194 = metadata !{i32 0, i32 0, metadata !195}
!195 = metadata !{metadata !196}
!196 = metadata !{metadata !"ssdm_ins_imager_512_4_0.clock.m_if.Val", metadata !56, metadata !"bool", i32 0, i32 0}
!197 = metadata !{metadata !198, i1* @ssdm_ins_imager_512_19}
!198 = metadata !{metadata !199}
!199 = metadata !{i32 0, i32 0, metadata !200}
!200 = metadata !{metadata !201}
!201 = metadata !{metadata !"ssdm_ins_imager_512_4_0.b_done", metadata !56, metadata !"bool", i32 0, i32 0}
!202 = metadata !{metadata !203, i1* @ssdm_ins_blocker_512}
!203 = metadata !{metadata !204}
!204 = metadata !{i32 0, i32 0, metadata !205}
!205 = metadata !{metadata !206}
!206 = metadata !{metadata !"ssdm_ins_blocker_512_4_0.write_done", metadata !56, metadata !"bool", i32 0, i32 0}
!207 = metadata !{metadata !208, i1* @ssdm_ins_blocker_512_17}
!208 = metadata !{metadata !209}
!209 = metadata !{i32 0, i32 0, metadata !210}
!210 = metadata !{metadata !211}
!211 = metadata !{metadata !"ssdm_ins_blocker_512_4_0.start.m_if.Val", metadata !56, metadata !"bool", i32 0, i32 0}
!212 = metadata !{metadata !213, i1* @ssdm_ins_blocker_512_4}
!213 = metadata !{metadata !214}
!214 = metadata !{i32 0, i32 0, metadata !215}
!215 = metadata !{metadata !216}
!216 = metadata !{metadata !"ssdm_ins_blocker_512_4_0.reset.m_if.Val", metadata !56, metadata !"bool", i32 0, i32 0}
!217 = metadata !{metadata !218, [4096 x i8]* @ssdm_ins_blocker_512_3}
!218 = metadata !{metadata !219}
!219 = metadata !{i32 0, i32 7, metadata !220}
!220 = metadata !{metadata !221}
!221 = metadata !{metadata !"ssdm_ins_blocker_512_4_0.img_data.V", metadata !175, metadata !"uint8", i32 0, i32 7}
!222 = metadata !{metadata !223, i8* @ssdm_ins_blocker_512_1}
!223 = metadata !{metadata !224}
!224 = metadata !{i32 0, i32 7, metadata !225}
!225 = metadata !{metadata !226}
!226 = metadata !{metadata !"ssdm_ins_blocker_512_4_0.dout.m_if.Val.V", metadata !56, metadata !"uint8", i32 0, i32 7}
!227 = metadata !{metadata !228, i1* @ssdm_ins_blocker_512_22}
!228 = metadata !{metadata !229}
!229 = metadata !{i32 0, i32 0, metadata !230}
!230 = metadata !{metadata !231}
!231 = metadata !{metadata !"ssdm_ins_blocker_512_4_0.done.m_if.Val", metadata !56, metadata !"bool", i32 0, i32 0}
!232 = metadata !{metadata !233, i8* @ssdm_ins_blocker_512_21}
!233 = metadata !{metadata !234}
!234 = metadata !{i32 0, i32 7, metadata !235}
!235 = metadata !{metadata !236}
!236 = metadata !{metadata !"ssdm_ins_blocker_512_4_0.din.m_if.Val.V", metadata !56, metadata !"uint8", i32 0, i32 7}
!237 = metadata !{metadata !238, i1* @ssdm_ins_blocker_512_20}
!238 = metadata !{metadata !239}
!239 = metadata !{i32 0, i32 0, metadata !240}
!240 = metadata !{metadata !241}
!241 = metadata !{metadata !"ssdm_ins_blocker_512_4_0.clock.m_if.Val", metadata !56, metadata !"bool", i32 0, i32 0}
!242 = metadata !{metadata !243, i1* @ssdm_ins_blocker_512_19}
!243 = metadata !{metadata !244}
!244 = metadata !{i32 0, i32 0, metadata !245}
!245 = metadata !{metadata !246}
!246 = metadata !{metadata !"ssdm_ins_blocker_512_4_0.b_done", metadata !56, metadata !"bool", i32 0, i32 0}
!247 = metadata !{metadata !248, i1* @sc_FIFO_IDCT_ssdm_thread_M_Prc2}
!248 = metadata !{metadata !249}
!249 = metadata !{i32 0, i32 0, metadata !250}
!250 = metadata !{metadata !251}
!251 = metadata !{metadata !"sc_FIFO_IDCT::__ssdm_thread_M_Prc2", metadata !56, metadata !"bool", i32 0, i32 0}
!252 = metadata !{metadata !253, i1* @sc_FIFO_IDCT_ssdm_thread_M_Prc1}
!253 = metadata !{metadata !254}
!254 = metadata !{i32 0, i32 0, metadata !255}
!255 = metadata !{metadata !256}
!256 = metadata !{metadata !"sc_FIFO_IDCT::__ssdm_thread_M_Prc1", metadata !56, metadata !"bool", i32 0, i32 0}
!257 = metadata !{metadata !258, i1* @sc_FIFO_DCT_ssdm_thread_M_Prc2}
!258 = metadata !{metadata !259}
!259 = metadata !{i32 0, i32 0, metadata !260}
!260 = metadata !{metadata !261}
!261 = metadata !{metadata !"sc_FIFO_DCT::__ssdm_thread_M_Prc2", metadata !56, metadata !"bool", i32 0, i32 0}
!262 = metadata !{metadata !263, i1* @sc_FIFO_DCT_ssdm_thread_M_Prc1}
!263 = metadata !{metadata !264}
!264 = metadata !{i32 0, i32 0, metadata !265}
!265 = metadata !{metadata !266}
!266 = metadata !{metadata !"sc_FIFO_DCT::__ssdm_thread_M_Prc1", metadata !56, metadata !"bool", i32 0, i32 0}
!267 = metadata !{metadata !268, [5 x i32]* @llvm_global_ctors_0}
!268 = metadata !{metadata !269}
!269 = metadata !{i32 0, i32 31, metadata !270}
!270 = metadata !{metadata !271}
!271 = metadata !{metadata !"llvm.global_ctors.0", metadata !272, metadata !"", i32 0, i32 31}
!272 = metadata !{metadata !273}
!273 = metadata !{i32 0, i32 4, i32 1}
!274 = metadata !{metadata !275, i1* @imager_512_ssdm_thread_M_imager_buffer}
!275 = metadata !{metadata !276}
!276 = metadata !{i32 0, i32 0, metadata !277}
!277 = metadata !{metadata !278}
!278 = metadata !{metadata !"imager_512::__ssdm_thread_M_imager_buffer", metadata !56, metadata !"bool", i32 0, i32 0}
!279 = metadata !{metadata !280, i1* @imager_512_ssdm_thread_M_imager_512_main}
!280 = metadata !{metadata !281}
!281 = metadata !{i32 0, i32 0, metadata !282}
!282 = metadata !{metadata !283}
!283 = metadata !{metadata !"imager_512::__ssdm_thread_M_imager_512_main", metadata !56, metadata !"bool", i32 0, i32 0}
!284 = metadata !{metadata !285, i1* @blocker_512_ssdm_thread_M_blocker_buffer}
!285 = metadata !{metadata !286}
!286 = metadata !{i32 0, i32 0, metadata !287}
!287 = metadata !{metadata !288}
!288 = metadata !{metadata !"blocker_512::__ssdm_thread_M_blocker_buffer", metadata !56, metadata !"bool", i32 0, i32 0}
!289 = metadata !{metadata !290, i1* @blocker_512_ssdm_thread_M_blocker_512_main}
!290 = metadata !{metadata !291}
!291 = metadata !{i32 0, i32 0, metadata !292}
!292 = metadata !{metadata !293}
!293 = metadata !{metadata !"blocker_512::__ssdm_thread_M_blocker_512_main", metadata !56, metadata !"bool", i32 0, i32 0}
!294 = metadata !{metadata !295}
!295 = metadata !{i32 0, i32 0, metadata !296}
!296 = metadata !{metadata !297}
!297 = metadata !{metadata !"sc_FIFO_IDCT.clock.m_if.Val", metadata !56, metadata !"bool", i32 0, i32 0}
!298 = metadata !{metadata !299}
!299 = metadata !{i32 0, i32 0, metadata !300}
!300 = metadata !{metadata !301}
!301 = metadata !{metadata !"sc_FIFO_IDCT.reset.m_if.Val", metadata !56, metadata !"bool", i32 0, i32 0}
!302 = metadata !{metadata !303}
!303 = metadata !{i32 0, i32 0, metadata !304}
!304 = metadata !{metadata !305}
!305 = metadata !{metadata !"sc_FIFO_IDCT.start.m_if.Val", metadata !56, metadata !"bool", i32 0, i32 0}
!306 = metadata !{metadata !307}
!307 = metadata !{i32 0, i32 0, metadata !308}
!308 = metadata !{metadata !309}
!309 = metadata !{metadata !"sc_FIFO_IDCT.done.m_if.Val", metadata !56, metadata !"bool", i32 0, i32 0}
!310 = metadata !{metadata !311}
!311 = metadata !{i32 0, i32 7, metadata !312}
!312 = metadata !{metadata !313}
!313 = metadata !{metadata !"sc_FIFO_IDCT.dout.m_if.Val.V", metadata !56, metadata !"uint8", i32 0, i32 7}
!314 = metadata !{metadata !315}
!315 = metadata !{i32 0, i32 7, metadata !316}
!316 = metadata !{metadata !317}
!317 = metadata !{metadata !"sc_FIFO_IDCT.din.m_if.Val.V", metadata !56, metadata !"uint8", i32 0, i32 7}
!318 = metadata !{metadata !319}
!319 = metadata !{i32 0, i32 31, metadata !320}
!320 = metadata !{metadata !321}
!321 = metadata !{metadata !"sc_FIFO_IDCT.mA", metadata !73, metadata !"int", i32 0, i32 31}
!322 = metadata !{metadata !323}
!323 = metadata !{i32 0, i32 31, metadata !324}
!324 = metadata !{metadata !325}
!325 = metadata !{metadata !"sc_FIFO_IDCT.mB", metadata !73, metadata !"int", i32 0, i32 31}
!326 = metadata !{metadata !327}
!327 = metadata !{i32 0, i32 0, metadata !328}
!328 = metadata !{metadata !329}
!329 = metadata !{metadata !"sc_FIFO_IDCT.write_done", metadata !56, metadata !"bool", i32 0, i32 0}
!330 = metadata !{metadata !331}
!331 = metadata !{i32 0, i32 31, metadata !332}
!332 = metadata !{metadata !333}
!333 = metadata !{metadata !"sc_FIFO_IDCT.exec_cnt", metadata !56, metadata !"int", i32 0, i32 31}
!334 = metadata !{i32 790531, metadata !335, metadata !"sc_FIFO_IDCT.clock.m_if.Val", null, i32 24, metadata !1367, i32 0, i32 0} ; [ DW_TAG_arg_variable_field ]
!335 = metadata !{i32 786689, metadata !336, metadata !"this", metadata !337, i32 16777240, metadata !1366, i32 64, i32 0} ; [ DW_TAG_arg_variable ]
!336 = metadata !{i32 786478, i32 0, null, metadata !"sc_FIFO_IDCT", metadata !"sc_FIFO_IDCT", metadata !"_ZN12sc_FIFO_IDCTC2EN7_ap_sc_7sc_core14sc_module_nameE", metadata !337, i32 24, metadata !338, i1 false, i1 true, i32 0, i32 0, null, i32 256, i1 false, null, null, metadata !1354, metadata !359, i32 25} ; [ DW_TAG_subprogram ]
!337 = metadata !{i32 786473, metadata !"./sc_FIFO_IDCT.h", metadata !"C:\5CUsers\5CalienBot\5CDocuments\5CGitHub\5CDCT_base", null} ; [ DW_TAG_file_type ]
!338 = metadata !{i32 786453, i32 0, metadata !"", i32 0, i32 0, i64 0, i64 0, i64 0, i32 0, null, metadata !339, i32 0, i32 0} ; [ DW_TAG_subroutine_type ]
!339 = metadata !{null, metadata !340, metadata !1355}
!340 = metadata !{i32 786447, i32 0, metadata !"", i32 0, i32 0, i64 32, i64 32, i64 0, i32 64, metadata !341} ; [ DW_TAG_pointer_type ]
!341 = metadata !{i32 786434, null, metadata !"sc_FIFO_IDCT", metadata !337, i32 9, i64 6528, i64 32, i32 0, i32 0, null, metadata !342, i32 0, null, null} ; [ DW_TAG_class_type ]
!342 = metadata !{metadata !343, metadata !459, metadata !460, metadata !461, metadata !545, metadata !1267, metadata !1343, metadata !1347, metadata !1348, metadata !1349, metadata !1350, metadata !1353, metadata !1354}
!343 = metadata !{i32 786445, metadata !341, metadata !"clock", metadata !337, i32 12, i64 8, i64 8, i64 0, i32 0, metadata !344} ; [ DW_TAG_member ]
!344 = metadata !{i32 786434, metadata !345, metadata !"sc_in<bool>", metadata !347, i32 370, i64 8, i64 8, i32 0, i32 0, null, metadata !348, i32 0, null, metadata !393} ; [ DW_TAG_class_type ]
!345 = metadata !{i32 786489, metadata !346, metadata !"sc_core", metadata !347, i32 163} ; [ DW_TAG_namespace ]
!346 = metadata !{i32 786489, null, metadata !"_ap_sc_", metadata !347, i32 160} ; [ DW_TAG_namespace ]
!347 = metadata !{i32 786473, metadata !"C:/Xilinx/Vivado_HLS/2016.3/common/technology/autopilot/ap_sysc/ap_sc_core.h", metadata !"C:\5CUsers\5CalienBot\5CDocuments\5CGitHub\5CDCT_base", null} ; [ DW_TAG_file_type ]
!348 = metadata !{metadata !349, metadata !428, metadata !433, metadata !434, metadata !438, metadata !441, metadata !444, metadata !447}
!349 = metadata !{i32 786460, metadata !344, null, metadata !347, i32 0, i64 0, i64 0, i64 0, i32 0, metadata !350} ; [ DW_TAG_inheritance ]
!350 = metadata !{i32 786434, metadata !345, metadata !"sc_port_b<_ap_sc_::sc_core::sc_signal_in_if<bool> >", metadata !347, i32 281, i64 8, i64 8, i32 0, i32 0, null, metadata !351, i32 0, null, metadata !426} ; [ DW_TAG_class_type ]
!351 = metadata !{metadata !352, metadata !361, metadata !395, metadata !399, metadata !405, metadata !409, metadata !410, metadata !416, metadata !417, metadata !421, metadata !422}
!352 = metadata !{i32 786460, metadata !350, null, metadata !347, i32 0, i64 0, i64 0, i64 0, i32 0, metadata !353} ; [ DW_TAG_inheritance ]
!353 = metadata !{i32 786434, metadata !345, metadata !"sc_port_base", metadata !347, i32 278, i64 8, i64 8, i32 0, i32 0, null, metadata !354, i32 0, null, null} ; [ DW_TAG_class_type ]
!354 = metadata !{metadata !355}
!355 = metadata !{i32 786478, i32 0, metadata !353, metadata !"sc_port_base", metadata !"sc_port_base", metadata !"", metadata !347, i32 278, metadata !356, i1 false, i1 false, i32 0, i32 0, null, i32 256, i1 false, null, null, i32 0, metadata !359, i32 278} ; [ DW_TAG_subprogram ]
!356 = metadata !{i32 786453, i32 0, metadata !"", i32 0, i32 0, i64 0, i64 0, i64 0, i32 0, null, metadata !357, i32 0, i32 0} ; [ DW_TAG_subroutine_type ]
!357 = metadata !{null, metadata !358}
!358 = metadata !{i32 786447, i32 0, metadata !"", i32 0, i32 0, i64 32, i64 32, i64 0, i32 64, metadata !353} ; [ DW_TAG_pointer_type ]
!359 = metadata !{metadata !360}
!360 = metadata !{i32 786468}                     ; [ DW_TAG_base_type ]
!361 = metadata !{i32 786445, metadata !350, metadata !"m_if", metadata !347, i32 283, i64 8, i64 8, i64 0, i32 0, metadata !362} ; [ DW_TAG_member ]
!362 = metadata !{i32 786434, metadata !345, metadata !"sc_signal_in_if<bool>", metadata !347, i32 172, i64 8, i64 8, i32 0, i32 0, null, metadata !363, i32 0, null, metadata !393} ; [ DW_TAG_class_type ]
!363 = metadata !{metadata !364, metadata !371, metadata !374, metadata !378, metadata !381, metadata !386, metadata !390}
!364 = metadata !{i32 786460, metadata !362, null, metadata !347, i32 0, i64 0, i64 0, i64 0, i32 0, metadata !365} ; [ DW_TAG_inheritance ]
!365 = metadata !{i32 786434, metadata !345, metadata !"sc_interface", metadata !347, i32 165, i64 8, i64 8, i32 0, i32 0, null, metadata !366, i32 0, null, null} ; [ DW_TAG_class_type ]
!366 = metadata !{metadata !367}
!367 = metadata !{i32 786478, i32 0, metadata !365, metadata !"sc_interface", metadata !"sc_interface", metadata !"", metadata !347, i32 165, metadata !368, i1 false, i1 false, i32 0, i32 0, null, i32 256, i1 false, null, null, i32 0, metadata !359, i32 165} ; [ DW_TAG_subprogram ]
!368 = metadata !{i32 786453, i32 0, metadata !"", i32 0, i32 0, i64 0, i64 0, i64 0, i32 0, null, metadata !369, i32 0, i32 0} ; [ DW_TAG_subroutine_type ]
!369 = metadata !{null, metadata !370}
!370 = metadata !{i32 786447, i32 0, metadata !"", i32 0, i32 0, i64 32, i64 32, i64 0, i32 64, metadata !365} ; [ DW_TAG_pointer_type ]
!371 = metadata !{i32 786445, metadata !362, metadata !"Val", metadata !347, i32 174, i64 8, i64 8, i64 0, i32 0, metadata !372} ; [ DW_TAG_member ]
!372 = metadata !{i32 786485, null, metadata !"", null, i32 0, i64 0, i64 0, i64 0, i32 0, metadata !373} ; [ DW_TAG_volatile_type ]
!373 = metadata !{i32 786468, null, metadata !"bool", null, i32 0, i64 8, i64 8, i64 0, i32 0, i32 2} ; [ DW_TAG_base_type ]
!374 = metadata !{i32 786478, i32 0, metadata !362, metadata !"sc_signal_in_if", metadata !"sc_signal_in_if", metadata !"", metadata !347, i32 176, metadata !375, i1 false, i1 false, i32 0, i32 0, null, i32 256, i1 false, null, null, i32 0, metadata !359, i32 176} ; [ DW_TAG_subprogram ]
!375 = metadata !{i32 786453, i32 0, metadata !"", i32 0, i32 0, i64 0, i64 0, i64 0, i32 0, null, metadata !376, i32 0, i32 0} ; [ DW_TAG_subroutine_type ]
!376 = metadata !{null, metadata !377}
!377 = metadata !{i32 786447, i32 0, metadata !"", i32 0, i32 0, i64 32, i64 32, i64 0, i32 64, metadata !362} ; [ DW_TAG_pointer_type ]
!378 = metadata !{i32 786478, i32 0, metadata !362, metadata !"read", metadata !"read", metadata !"_ZN7_ap_sc_7sc_core15sc_signal_in_ifIbE4readEv", metadata !347, i32 180, metadata !379, i1 false, i1 false, i32 0, i32 0, null, i32 256, i1 false, null, null, i32 0, metadata !359, i32 180} ; [ DW_TAG_subprogram ]
!379 = metadata !{i32 786453, i32 0, metadata !"", i32 0, i32 0, i64 0, i64 0, i64 0, i32 0, null, metadata !380, i32 0, i32 0} ; [ DW_TAG_subroutine_type ]
!380 = metadata !{metadata !373, metadata !377}
!381 = metadata !{i32 786478, i32 0, metadata !362, metadata !"read", metadata !"read", metadata !"_ZNK7_ap_sc_7sc_core15sc_signal_in_ifIbE4readEv", metadata !347, i32 181, metadata !382, i1 false, i1 false, i32 0, i32 0, null, i32 256, i1 false, null, null, i32 0, metadata !359, i32 181} ; [ DW_TAG_subprogram ]
!382 = metadata !{i32 786453, i32 0, metadata !"", i32 0, i32 0, i64 0, i64 0, i64 0, i32 0, null, metadata !383, i32 0, i32 0} ; [ DW_TAG_subroutine_type ]
!383 = metadata !{metadata !373, metadata !384}
!384 = metadata !{i32 786447, i32 0, metadata !"", i32 0, i32 0, i64 32, i64 32, i64 0, i32 64, metadata !385} ; [ DW_TAG_pointer_type ]
!385 = metadata !{i32 786470, null, metadata !"", null, i32 0, i64 0, i64 0, i64 0, i32 0, metadata !362} ; [ DW_TAG_const_type ]
!386 = metadata !{i32 786478, i32 0, metadata !362, metadata !"operator const _Bool", metadata !"operator const _Bool", metadata !"_ZN7_ap_sc_7sc_core15sc_signal_in_ifIbEcvKbEv", metadata !347, i32 187, metadata !387, i1 false, i1 false, i32 0, i32 0, null, i32 256, i1 false, null, null, i32 0, metadata !359, i32 187} ; [ DW_TAG_subprogram ]
!387 = metadata !{i32 786453, i32 0, metadata !"", i32 0, i32 0, i64 0, i64 0, i64 0, i32 0, null, metadata !388, i32 0, i32 0} ; [ DW_TAG_subroutine_type ]
!388 = metadata !{metadata !389, metadata !377}
!389 = metadata !{i32 786470, null, metadata !"", null, i32 0, i64 0, i64 0, i64 0, i32 0, metadata !373} ; [ DW_TAG_const_type ]
!390 = metadata !{i32 786478, i32 0, metadata !362, metadata !"operator const _Bool", metadata !"operator const _Bool", metadata !"_ZNK7_ap_sc_7sc_core15sc_signal_in_ifIbEcvKbEv", metadata !347, i32 188, metadata !391, i1 false, i1 false, i32 0, i32 0, null, i32 256, i1 false, null, null, i32 0, metadata !359, i32 188} ; [ DW_TAG_subprogram ]
!391 = metadata !{i32 786453, i32 0, metadata !"", i32 0, i32 0, i64 0, i64 0, i64 0, i32 0, null, metadata !392, i32 0, i32 0} ; [ DW_TAG_subroutine_type ]
!392 = metadata !{metadata !389, metadata !384}
!393 = metadata !{metadata !394}
!394 = metadata !{i32 786479, null, metadata !"T", metadata !373, null, i32 0, i32 0} ; [ DW_TAG_template_type_parameter ]
!395 = metadata !{i32 786478, i32 0, metadata !350, metadata !"sc_port_b", metadata !"sc_port_b", metadata !"", metadata !347, i32 285, metadata !396, i1 false, i1 false, i32 0, i32 0, null, i32 256, i1 false, null, null, i32 0, metadata !359, i32 285} ; [ DW_TAG_subprogram ]
!396 = metadata !{i32 786453, i32 0, metadata !"", i32 0, i32 0, i64 0, i64 0, i64 0, i32 0, null, metadata !397, i32 0, i32 0} ; [ DW_TAG_subroutine_type ]
!397 = metadata !{null, metadata !398}
!398 = metadata !{i32 786447, i32 0, metadata !"", i32 0, i32 0, i64 32, i64 32, i64 0, i32 64, metadata !350} ; [ DW_TAG_pointer_type ]
!399 = metadata !{i32 786478, i32 0, metadata !350, metadata !"sc_port_b", metadata !"sc_port_b", metadata !"", metadata !347, i32 286, metadata !400, i1 false, i1 false, i32 0, i32 0, null, i32 384, i1 false, null, null, i32 0, metadata !359, i32 286} ; [ DW_TAG_subprogram ]
!400 = metadata !{i32 786453, i32 0, metadata !"", i32 0, i32 0, i64 0, i64 0, i64 0, i32 0, null, metadata !401, i32 0, i32 0} ; [ DW_TAG_subroutine_type ]
!401 = metadata !{null, metadata !398, metadata !402}
!402 = metadata !{i32 786447, null, metadata !"", null, i32 0, i64 32, i64 32, i64 0, i32 0, metadata !403} ; [ DW_TAG_pointer_type ]
!403 = metadata !{i32 786470, null, metadata !"", null, i32 0, i64 0, i64 0, i64 0, i32 0, metadata !404} ; [ DW_TAG_const_type ]
!404 = metadata !{i32 786468, null, metadata !"char", null, i32 0, i64 8, i64 8, i64 0, i32 0, i32 6} ; [ DW_TAG_base_type ]
!405 = metadata !{i32 786478, i32 0, metadata !350, metadata !"bind", metadata !"bind", metadata !"_ZN7_ap_sc_7sc_core9sc_port_bINS0_15sc_signal_in_ifIbEEE4bindERS3_", metadata !347, i32 290, metadata !406, i1 false, i1 false, i32 0, i32 0, null, i32 256, i1 false, null, null, i32 0, metadata !359, i32 290} ; [ DW_TAG_subprogram ]
!406 = metadata !{i32 786453, i32 0, metadata !"", i32 0, i32 0, i64 0, i64 0, i64 0, i32 0, null, metadata !407, i32 0, i32 0} ; [ DW_TAG_subroutine_type ]
!407 = metadata !{null, metadata !398, metadata !408}
!408 = metadata !{i32 786448, null, null, null, i32 0, i64 0, i64 0, i64 0, i32 0, metadata !362} ; [ DW_TAG_reference_type ]
!409 = metadata !{i32 786478, i32 0, metadata !350, metadata !"operator()", metadata !"operator()", metadata !"_ZN7_ap_sc_7sc_core9sc_port_bINS0_15sc_signal_in_ifIbEEEclERS3_", metadata !347, i32 293, metadata !406, i1 false, i1 false, i32 0, i32 0, null, i32 256, i1 false, null, null, i32 0, metadata !359, i32 293} ; [ DW_TAG_subprogram ]
!410 = metadata !{i32 786478, i32 0, metadata !350, metadata !"bind", metadata !"bind", metadata !"_ZN7_ap_sc_7sc_core9sc_port_bINS0_15sc_signal_in_ifIbEEE4bindERNS0_15sc_prim_channelE", metadata !347, i32 294, metadata !411, i1 false, i1 false, i32 0, i32 0, null, i32 256, i1 false, null, null, i32 0, metadata !359, i32 294} ; [ DW_TAG_subprogram ]
!411 = metadata !{i32 786453, i32 0, metadata !"", i32 0, i32 0, i64 0, i64 0, i64 0, i32 0, null, metadata !412, i32 0, i32 0} ; [ DW_TAG_subroutine_type ]
!412 = metadata !{null, metadata !398, metadata !413}
!413 = metadata !{i32 786448, null, null, null, i32 0, i64 0, i64 0, i64 0, i32 0, metadata !414} ; [ DW_TAG_reference_type ]
!414 = metadata !{i32 786434, metadata !345, metadata !"sc_prim_channel", metadata !347, i32 166, i64 8, i64 8, i32 0, i32 0, null, metadata !415, i32 0, null, null} ; [ DW_TAG_class_type ]
!415 = metadata !{i32 0}
!416 = metadata !{i32 786478, i32 0, metadata !350, metadata !"operator()", metadata !"operator()", metadata !"_ZN7_ap_sc_7sc_core9sc_port_bINS0_15sc_signal_in_ifIbEEEclERNS0_15sc_prim_channelE", metadata !347, i32 297, metadata !411, i1 false, i1 false, i32 0, i32 0, null, i32 256, i1 false, null, null, i32 0, metadata !359, i32 297} ; [ DW_TAG_subprogram ]
!417 = metadata !{i32 786478, i32 0, metadata !350, metadata !"bind", metadata !"bind", metadata !"_ZN7_ap_sc_7sc_core9sc_port_bINS0_15sc_signal_in_ifIbEEE4bindERS4_", metadata !347, i32 298, metadata !418, i1 false, i1 false, i32 0, i32 0, null, i32 256, i1 false, null, null, i32 0, metadata !359, i32 298} ; [ DW_TAG_subprogram ]
!418 = metadata !{i32 786453, i32 0, metadata !"", i32 0, i32 0, i64 0, i64 0, i64 0, i32 0, null, metadata !419, i32 0, i32 0} ; [ DW_TAG_subroutine_type ]
!419 = metadata !{null, metadata !398, metadata !420}
!420 = metadata !{i32 786448, null, null, null, i32 0, i64 0, i64 0, i64 0, i32 0, metadata !350} ; [ DW_TAG_reference_type ]
!421 = metadata !{i32 786478, i32 0, metadata !350, metadata !"operator()", metadata !"operator()", metadata !"_ZN7_ap_sc_7sc_core9sc_port_bINS0_15sc_signal_in_ifIbEEEclERS4_", metadata !347, i32 299, metadata !418, i1 false, i1 false, i32 0, i32 0, null, i32 256, i1 false, null, null, i32 0, metadata !359, i32 299} ; [ DW_TAG_subprogram ]
!422 = metadata !{i32 786478, i32 0, metadata !350, metadata !"operator->", metadata !"operator->", metadata !"_ZN7_ap_sc_7sc_core9sc_port_bINS0_15sc_signal_in_ifIbEEEptEv", metadata !347, i32 301, metadata !423, i1 false, i1 false, i32 0, i32 0, null, i32 256, i1 false, null, null, i32 0, metadata !359, i32 301} ; [ DW_TAG_subprogram ]
!423 = metadata !{i32 786453, i32 0, metadata !"", i32 0, i32 0, i64 0, i64 0, i64 0, i32 0, null, metadata !424, i32 0, i32 0} ; [ DW_TAG_subroutine_type ]
!424 = metadata !{metadata !425, metadata !398}
!425 = metadata !{i32 786447, null, metadata !"", null, i32 0, i64 32, i64 32, i64 0, i32 0, metadata !362} ; [ DW_TAG_pointer_type ]
!426 = metadata !{metadata !427}
!427 = metadata !{i32 786479, null, metadata !"IF", metadata !362, null, i32 0, i32 0} ; [ DW_TAG_template_type_parameter ]
!428 = metadata !{i32 786478, i32 0, metadata !344, metadata !"pos", metadata !"pos", metadata !"_ZNK7_ap_sc_7sc_core5sc_inIbE3posEv", metadata !347, i32 375, metadata !429, i1 false, i1 false, i32 0, i32 0, null, i32 256, i1 false, null, null, i32 0, metadata !359, i32 375} ; [ DW_TAG_subprogram ]
!429 = metadata !{i32 786453, i32 0, metadata !"", i32 0, i32 0, i64 0, i64 0, i64 0, i32 0, null, metadata !430, i32 0, i32 0} ; [ DW_TAG_subroutine_type ]
!430 = metadata !{null, metadata !431}
!431 = metadata !{i32 786447, i32 0, metadata !"", i32 0, i32 0, i64 32, i64 32, i64 0, i32 64, metadata !432} ; [ DW_TAG_pointer_type ]
!432 = metadata !{i32 786470, null, metadata !"", null, i32 0, i64 0, i64 0, i64 0, i32 0, metadata !344} ; [ DW_TAG_const_type ]
!433 = metadata !{i32 786478, i32 0, metadata !344, metadata !"neg", metadata !"neg", metadata !"_ZNK7_ap_sc_7sc_core5sc_inIbE3negEv", metadata !347, i32 376, metadata !429, i1 false, i1 false, i32 0, i32 0, null, i32 256, i1 false, null, null, i32 0, metadata !359, i32 376} ; [ DW_TAG_subprogram ]
!434 = metadata !{i32 786478, i32 0, metadata !344, metadata !"sc_in", metadata !"sc_in", metadata !"", metadata !347, i32 378, metadata !435, i1 false, i1 false, i32 0, i32 0, null, i32 256, i1 false, null, null, i32 0, metadata !359, i32 378} ; [ DW_TAG_subprogram ]
!435 = metadata !{i32 786453, i32 0, metadata !"", i32 0, i32 0, i64 0, i64 0, i64 0, i32 0, null, metadata !436, i32 0, i32 0} ; [ DW_TAG_subroutine_type ]
!436 = metadata !{null, metadata !437}
!437 = metadata !{i32 786447, i32 0, metadata !"", i32 0, i32 0, i64 32, i64 32, i64 0, i32 64, metadata !344} ; [ DW_TAG_pointer_type ]
!438 = metadata !{i32 786478, i32 0, metadata !344, metadata !"sc_in", metadata !"sc_in", metadata !"", metadata !347, i32 379, metadata !439, i1 false, i1 false, i32 0, i32 0, null, i32 384, i1 false, null, null, i32 0, metadata !359, i32 379} ; [ DW_TAG_subprogram ]
!439 = metadata !{i32 786453, i32 0, metadata !"", i32 0, i32 0, i64 0, i64 0, i64 0, i32 0, null, metadata !440, i32 0, i32 0} ; [ DW_TAG_subroutine_type ]
!440 = metadata !{null, metadata !437, metadata !402}
!441 = metadata !{i32 786478, i32 0, metadata !344, metadata !"read", metadata !"read", metadata !"_ZN7_ap_sc_7sc_core5sc_inIbE4readEv", metadata !347, i32 382, metadata !442, i1 false, i1 false, i32 0, i32 0, null, i32 256, i1 false, null, null, i32 0, metadata !359, i32 382} ; [ DW_TAG_subprogram ]
!442 = metadata !{i32 786453, i32 0, metadata !"", i32 0, i32 0, i64 0, i64 0, i64 0, i32 0, null, metadata !443, i32 0, i32 0} ; [ DW_TAG_subroutine_type ]
!443 = metadata !{metadata !373, metadata !437}
!444 = metadata !{i32 786478, i32 0, metadata !344, metadata !"operator const _Bool", metadata !"operator const _Bool", metadata !"_ZN7_ap_sc_7sc_core5sc_inIbEcvKbEv", metadata !347, i32 383, metadata !445, i1 false, i1 false, i32 0, i32 0, null, i32 256, i1 false, null, null, i32 0, metadata !359, i32 383} ; [ DW_TAG_subprogram ]
!445 = metadata !{i32 786453, i32 0, metadata !"", i32 0, i32 0, i64 0, i64 0, i64 0, i32 0, null, metadata !446, i32 0, i32 0} ; [ DW_TAG_subroutine_type ]
!446 = metadata !{metadata !389, metadata !437}
!447 = metadata !{i32 786478, i32 0, metadata !344, metadata !"delayed", metadata !"delayed", metadata !"_ZNK7_ap_sc_7sc_core5sc_inIbE7delayedEv", metadata !347, i32 386, metadata !448, i1 false, i1 false, i32 0, i32 0, null, i32 256, i1 false, null, null, i32 0, metadata !359, i32 386} ; [ DW_TAG_subprogram ]
!448 = metadata !{i32 786453, i32 0, metadata !"", i32 0, i32 0, i64 0, i64 0, i64 0, i32 0, null, metadata !449, i32 0, i32 0} ; [ DW_TAG_subroutine_type ]
!449 = metadata !{metadata !450, metadata !431}
!450 = metadata !{i32 786448, null, null, null, i32 0, i64 0, i64 0, i64 0, i32 0, metadata !451} ; [ DW_TAG_reference_type ]
!451 = metadata !{i32 786470, null, metadata !"", null, i32 0, i64 0, i64 0, i64 0, i32 0, metadata !452} ; [ DW_TAG_const_type ]
!452 = metadata !{i32 786434, metadata !345, metadata !"sc_signal_bool_deval", metadata !347, i32 268, i64 8, i64 8, i32 0, i32 0, null, metadata !453, i32 0, null, null} ; [ DW_TAG_class_type ]
!453 = metadata !{metadata !454}
!454 = metadata !{i32 786478, i32 0, metadata !452, metadata !"operator==", metadata !"operator==", metadata !"_ZNK7_ap_sc_7sc_core20sc_signal_bool_devaleqEb", metadata !347, i32 270, metadata !455, i1 false, i1 false, i32 0, i32 0, null, i32 256, i1 false, null, null, i32 0, metadata !359, i32 270} ; [ DW_TAG_subprogram ]
!455 = metadata !{i32 786453, i32 0, metadata !"", i32 0, i32 0, i64 0, i64 0, i64 0, i32 0, null, metadata !456, i32 0, i32 0} ; [ DW_TAG_subroutine_type ]
!456 = metadata !{metadata !457, metadata !458, metadata !373}
!457 = metadata !{i32 786448, null, null, null, i32 0, i64 0, i64 0, i64 0, i32 0, metadata !452} ; [ DW_TAG_reference_type ]
!458 = metadata !{i32 786447, i32 0, metadata !"", i32 0, i32 0, i64 32, i64 32, i64 0, i32 64, metadata !451} ; [ DW_TAG_pointer_type ]
!459 = metadata !{i32 786445, metadata !341, metadata !"reset", metadata !337, i32 13, i64 8, i64 8, i64 8, i32 0, metadata !344} ; [ DW_TAG_member ]
!460 = metadata !{i32 786445, metadata !341, metadata !"start", metadata !337, i32 14, i64 8, i64 8, i64 16, i32 0, metadata !344} ; [ DW_TAG_member ]
!461 = metadata !{i32 786445, metadata !341, metadata !"done", metadata !337, i32 15, i64 8, i64 8, i64 24, i32 0, metadata !462} ; [ DW_TAG_member ]
!462 = metadata !{i32 786434, metadata !345, metadata !"sc_out<bool>", metadata !347, i32 440, i64 8, i64 8, i32 0, i32 0, null, metadata !463, i32 0, null, metadata !536} ; [ DW_TAG_class_type ]
!463 = metadata !{metadata !464, metadata !538, metadata !542}
!464 = metadata !{i32 786460, metadata !462, null, metadata !347, i32 0, i64 0, i64 0, i64 0, i32 0, metadata !465} ; [ DW_TAG_inheritance ]
!465 = metadata !{i32 786434, metadata !345, metadata !"sc_inout<bool>", metadata !347, i32 419, i64 8, i64 8, i32 0, i32 0, null, metadata !466, i32 0, null, metadata !536} ; [ DW_TAG_class_type ]
!466 = metadata !{metadata !467, metadata !511, metadata !515, metadata !518, metadata !522, metadata !526, metadata !533}
!467 = metadata !{i32 786460, metadata !465, null, metadata !347, i32 0, i64 0, i64 0, i64 0, i32 0, metadata !468} ; [ DW_TAG_inheritance ]
!468 = metadata !{i32 786434, metadata !345, metadata !"sc_port_b<_ap_sc_::sc_core::sc_signal_inout_if<bool> >", metadata !347, i32 281, i64 8, i64 8, i32 0, i32 0, null, metadata !469, i32 0, null, metadata !509} ; [ DW_TAG_class_type ]
!469 = metadata !{metadata !470, metadata !471, metadata !485, metadata !489, metadata !492, metadata !495, metadata !496, metadata !499, metadata !500, metadata !504, metadata !505}
!470 = metadata !{i32 786460, metadata !468, null, metadata !347, i32 0, i64 0, i64 0, i64 0, i32 0, metadata !353} ; [ DW_TAG_inheritance ]
!471 = metadata !{i32 786445, metadata !468, metadata !"m_if", metadata !347, i32 283, i64 8, i64 8, i64 0, i32 0, metadata !472} ; [ DW_TAG_member ]
!472 = metadata !{i32 786434, metadata !345, metadata !"sc_signal_inout_if<bool>", metadata !347, i32 193, i64 8, i64 8, i32 0, i32 0, null, metadata !473, i32 0, null, metadata !393} ; [ DW_TAG_class_type ]
!473 = metadata !{metadata !474, metadata !475, metadata !479}
!474 = metadata !{i32 786460, metadata !472, null, metadata !347, i32 0, i64 0, i64 0, i64 0, i32 0, metadata !362} ; [ DW_TAG_inheritance ]
!475 = metadata !{i32 786478, i32 0, metadata !472, metadata !"sc_signal_inout_if", metadata !"sc_signal_inout_if", metadata !"", metadata !347, i32 197, metadata !476, i1 false, i1 false, i32 0, i32 0, null, i32 256, i1 false, null, null, i32 0, metadata !359, i32 197} ; [ DW_TAG_subprogram ]
!476 = metadata !{i32 786453, i32 0, metadata !"", i32 0, i32 0, i64 0, i64 0, i64 0, i32 0, null, metadata !477, i32 0, i32 0} ; [ DW_TAG_subroutine_type ]
!477 = metadata !{null, metadata !478}
!478 = metadata !{i32 786447, i32 0, metadata !"", i32 0, i32 0, i64 32, i64 32, i64 0, i32 64, metadata !472} ; [ DW_TAG_pointer_type ]
!479 = metadata !{i32 786478, i32 0, metadata !472, metadata !"operator=", metadata !"operator=", metadata !"_ZN7_ap_sc_7sc_core18sc_signal_inout_ifIbEaSERKS2_", metadata !347, i32 199, metadata !480, i1 false, i1 false, i32 0, i32 0, null, i32 256, i1 false, null, null, i32 0, metadata !359, i32 199} ; [ DW_TAG_subprogram ]
!480 = metadata !{i32 786453, i32 0, metadata !"", i32 0, i32 0, i64 0, i64 0, i64 0, i32 0, null, metadata !481, i32 0, i32 0} ; [ DW_TAG_subroutine_type ]
!481 = metadata !{metadata !482, metadata !478, metadata !483}
!482 = metadata !{i32 786448, null, null, null, i32 0, i64 0, i64 0, i64 0, i32 0, metadata !472} ; [ DW_TAG_reference_type ]
!483 = metadata !{i32 786448, null, null, null, i32 0, i64 0, i64 0, i64 0, i32 0, metadata !484} ; [ DW_TAG_reference_type ]
!484 = metadata !{i32 786470, null, metadata !"", null, i32 0, i64 0, i64 0, i64 0, i32 0, metadata !472} ; [ DW_TAG_const_type ]
!485 = metadata !{i32 786478, i32 0, metadata !468, metadata !"sc_port_b", metadata !"sc_port_b", metadata !"", metadata !347, i32 285, metadata !486, i1 false, i1 false, i32 0, i32 0, null, i32 256, i1 false, null, null, i32 0, metadata !359, i32 285} ; [ DW_TAG_subprogram ]
!486 = metadata !{i32 786453, i32 0, metadata !"", i32 0, i32 0, i64 0, i64 0, i64 0, i32 0, null, metadata !487, i32 0, i32 0} ; [ DW_TAG_subroutine_type ]
!487 = metadata !{null, metadata !488}
!488 = metadata !{i32 786447, i32 0, metadata !"", i32 0, i32 0, i64 32, i64 32, i64 0, i32 64, metadata !468} ; [ DW_TAG_pointer_type ]
!489 = metadata !{i32 786478, i32 0, metadata !468, metadata !"sc_port_b", metadata !"sc_port_b", metadata !"", metadata !347, i32 286, metadata !490, i1 false, i1 false, i32 0, i32 0, null, i32 384, i1 false, null, null, i32 0, metadata !359, i32 286} ; [ DW_TAG_subprogram ]
!490 = metadata !{i32 786453, i32 0, metadata !"", i32 0, i32 0, i64 0, i64 0, i64 0, i32 0, null, metadata !491, i32 0, i32 0} ; [ DW_TAG_subroutine_type ]
!491 = metadata !{null, metadata !488, metadata !402}
!492 = metadata !{i32 786478, i32 0, metadata !468, metadata !"bind", metadata !"bind", metadata !"_ZN7_ap_sc_7sc_core9sc_port_bINS0_18sc_signal_inout_ifIbEEE4bindERS3_", metadata !347, i32 290, metadata !493, i1 false, i1 false, i32 0, i32 0, null, i32 256, i1 false, null, null, i32 0, metadata !359, i32 290} ; [ DW_TAG_subprogram ]
!493 = metadata !{i32 786453, i32 0, metadata !"", i32 0, i32 0, i64 0, i64 0, i64 0, i32 0, null, metadata !494, i32 0, i32 0} ; [ DW_TAG_subroutine_type ]
!494 = metadata !{null, metadata !488, metadata !482}
!495 = metadata !{i32 786478, i32 0, metadata !468, metadata !"operator()", metadata !"operator()", metadata !"_ZN7_ap_sc_7sc_core9sc_port_bINS0_18sc_signal_inout_ifIbEEEclERS3_", metadata !347, i32 293, metadata !493, i1 false, i1 false, i32 0, i32 0, null, i32 256, i1 false, null, null, i32 0, metadata !359, i32 293} ; [ DW_TAG_subprogram ]
!496 = metadata !{i32 786478, i32 0, metadata !468, metadata !"bind", metadata !"bind", metadata !"_ZN7_ap_sc_7sc_core9sc_port_bINS0_18sc_signal_inout_ifIbEEE4bindERNS0_15sc_prim_channelE", metadata !347, i32 294, metadata !497, i1 false, i1 false, i32 0, i32 0, null, i32 256, i1 false, null, null, i32 0, metadata !359, i32 294} ; [ DW_TAG_subprogram ]
!497 = metadata !{i32 786453, i32 0, metadata !"", i32 0, i32 0, i64 0, i64 0, i64 0, i32 0, null, metadata !498, i32 0, i32 0} ; [ DW_TAG_subroutine_type ]
!498 = metadata !{null, metadata !488, metadata !413}
!499 = metadata !{i32 786478, i32 0, metadata !468, metadata !"operator()", metadata !"operator()", metadata !"_ZN7_ap_sc_7sc_core9sc_port_bINS0_18sc_signal_inout_ifIbEEEclERNS0_15sc_prim_channelE", metadata !347, i32 297, metadata !497, i1 false, i1 false, i32 0, i32 0, null, i32 256, i1 false, null, null, i32 0, metadata !359, i32 297} ; [ DW_TAG_subprogram ]
!500 = metadata !{i32 786478, i32 0, metadata !468, metadata !"bind", metadata !"bind", metadata !"_ZN7_ap_sc_7sc_core9sc_port_bINS0_18sc_signal_inout_ifIbEEE4bindERS4_", metadata !347, i32 298, metadata !501, i1 false, i1 false, i32 0, i32 0, null, i32 256, i1 false, null, null, i32 0, metadata !359, i32 298} ; [ DW_TAG_subprogram ]
!501 = metadata !{i32 786453, i32 0, metadata !"", i32 0, i32 0, i64 0, i64 0, i64 0, i32 0, null, metadata !502, i32 0, i32 0} ; [ DW_TAG_subroutine_type ]
!502 = metadata !{null, metadata !488, metadata !503}
!503 = metadata !{i32 786448, null, null, null, i32 0, i64 0, i64 0, i64 0, i32 0, metadata !468} ; [ DW_TAG_reference_type ]
!504 = metadata !{i32 786478, i32 0, metadata !468, metadata !"operator()", metadata !"operator()", metadata !"_ZN7_ap_sc_7sc_core9sc_port_bINS0_18sc_signal_inout_ifIbEEEclERS4_", metadata !347, i32 299, metadata !501, i1 false, i1 false, i32 0, i32 0, null, i32 256, i1 false, null, null, i32 0, metadata !359, i32 299} ; [ DW_TAG_subprogram ]
!505 = metadata !{i32 786478, i32 0, metadata !468, metadata !"operator->", metadata !"operator->", metadata !"_ZN7_ap_sc_7sc_core9sc_port_bINS0_18sc_signal_inout_ifIbEEEptEv", metadata !347, i32 301, metadata !506, i1 false, i1 false, i32 0, i32 0, null, i32 256, i1 false, null, null, i32 0, metadata !359, i32 301} ; [ DW_TAG_subprogram ]
!506 = metadata !{i32 786453, i32 0, metadata !"", i32 0, i32 0, i64 0, i64 0, i64 0, i32 0, null, metadata !507, i32 0, i32 0} ; [ DW_TAG_subroutine_type ]
!507 = metadata !{metadata !508, metadata !488}
!508 = metadata !{i32 786447, null, metadata !"", null, i32 0, i64 32, i64 32, i64 0, i32 0, metadata !472} ; [ DW_TAG_pointer_type ]
!509 = metadata !{metadata !510}
!510 = metadata !{i32 786479, null, metadata !"IF", metadata !472, null, i32 0, i32 0} ; [ DW_TAG_template_type_parameter ]
!511 = metadata !{i32 786478, i32 0, metadata !465, metadata !"sc_inout", metadata !"sc_inout", metadata !"", metadata !347, i32 423, metadata !512, i1 false, i1 false, i32 0, i32 0, null, i32 256, i1 false, null, null, i32 0, metadata !359, i32 423} ; [ DW_TAG_subprogram ]
!512 = metadata !{i32 786453, i32 0, metadata !"", i32 0, i32 0, i64 0, i64 0, i64 0, i32 0, null, metadata !513, i32 0, i32 0} ; [ DW_TAG_subroutine_type ]
!513 = metadata !{null, metadata !514}
!514 = metadata !{i32 786447, i32 0, metadata !"", i32 0, i32 0, i64 32, i64 32, i64 0, i32 64, metadata !465} ; [ DW_TAG_pointer_type ]
!515 = metadata !{i32 786478, i32 0, metadata !465, metadata !"sc_inout", metadata !"sc_inout", metadata !"", metadata !347, i32 424, metadata !516, i1 false, i1 false, i32 0, i32 0, null, i32 384, i1 false, null, null, i32 0, metadata !359, i32 424} ; [ DW_TAG_subprogram ]
!516 = metadata !{i32 786453, i32 0, metadata !"", i32 0, i32 0, i64 0, i64 0, i64 0, i32 0, null, metadata !517, i32 0, i32 0} ; [ DW_TAG_subroutine_type ]
!517 = metadata !{null, metadata !514, metadata !402}
!518 = metadata !{i32 786478, i32 0, metadata !465, metadata !"write", metadata !"write", metadata !"_ZN7_ap_sc_7sc_core8sc_inoutIbE5writeERKb", metadata !347, i32 427, metadata !519, i1 false, i1 false, i32 0, i32 0, null, i32 256, i1 false, null, null, i32 0, metadata !359, i32 427} ; [ DW_TAG_subprogram ]
!519 = metadata !{i32 786453, i32 0, metadata !"", i32 0, i32 0, i64 0, i64 0, i64 0, i32 0, null, metadata !520, i32 0, i32 0} ; [ DW_TAG_subroutine_type ]
!520 = metadata !{null, metadata !514, metadata !521}
!521 = metadata !{i32 786448, null, null, null, i32 0, i64 0, i64 0, i64 0, i32 0, metadata !389} ; [ DW_TAG_reference_type ]
!522 = metadata !{i32 786478, i32 0, metadata !465, metadata !"read", metadata !"read", metadata !"_ZN7_ap_sc_7sc_core8sc_inoutIbE4readEv", metadata !347, i32 431, metadata !523, i1 false, i1 false, i32 0, i32 0, null, i32 256, i1 false, null, null, i32 0, metadata !359, i32 431} ; [ DW_TAG_subprogram ]
!523 = metadata !{i32 786453, i32 0, metadata !"", i32 0, i32 0, i64 0, i64 0, i64 0, i32 0, null, metadata !524, i32 0, i32 0} ; [ DW_TAG_subroutine_type ]
!524 = metadata !{metadata !525, metadata !514}
!525 = metadata !{i32 786454, metadata !465, metadata !"data_type", metadata !347, i32 421, i64 0, i64 0, i64 0, i32 0, metadata !373} ; [ DW_TAG_typedef ]
!526 = metadata !{i32 786478, i32 0, metadata !465, metadata !"operator const _Bool &", metadata !"operator const _Bool &", metadata !"_ZNK7_ap_sc_7sc_core8sc_inoutIbEcvRKbEv", metadata !347, i32 432, metadata !527, i1 false, i1 false, i32 0, i32 0, null, i32 256, i1 false, null, null, i32 0, metadata !359, i32 432} ; [ DW_TAG_subprogram ]
!527 = metadata !{i32 786453, i32 0, metadata !"", i32 0, i32 0, i64 0, i64 0, i64 0, i32 0, null, metadata !528, i32 0, i32 0} ; [ DW_TAG_subroutine_type ]
!528 = metadata !{metadata !529, metadata !531}
!529 = metadata !{i32 786448, null, null, null, i32 0, i64 0, i64 0, i64 0, i32 0, metadata !530} ; [ DW_TAG_reference_type ]
!530 = metadata !{i32 786470, null, metadata !"", null, i32 0, i64 0, i64 0, i64 0, i32 0, metadata !525} ; [ DW_TAG_const_type ]
!531 = metadata !{i32 786447, i32 0, metadata !"", i32 0, i32 0, i64 32, i64 32, i64 0, i32 64, metadata !532} ; [ DW_TAG_pointer_type ]
!532 = metadata !{i32 786470, null, metadata !"", null, i32 0, i64 0, i64 0, i64 0, i32 0, metadata !465} ; [ DW_TAG_const_type ]
!533 = metadata !{i32 786478, i32 0, metadata !465, metadata !"operator const _Bool", metadata !"operator const _Bool", metadata !"_ZN7_ap_sc_7sc_core8sc_inoutIbEcvKbEv", metadata !347, i32 435, metadata !534, i1 false, i1 false, i32 0, i32 0, null, i32 256, i1 false, null, null, i32 0, metadata !359, i32 435} ; [ DW_TAG_subprogram ]
!534 = metadata !{i32 786453, i32 0, metadata !"", i32 0, i32 0, i64 0, i64 0, i64 0, i32 0, null, metadata !535, i32 0, i32 0} ; [ DW_TAG_subroutine_type ]
!535 = metadata !{metadata !530, metadata !514}
!536 = metadata !{metadata !537}
!537 = metadata !{i32 786479, null, metadata !"_T", metadata !373, null, i32 0, i32 0} ; [ DW_TAG_template_type_parameter ]
!538 = metadata !{i32 786478, i32 0, metadata !462, metadata !"sc_out", metadata !"sc_out", metadata !"", metadata !347, i32 443, metadata !539, i1 false, i1 false, i32 0, i32 0, null, i32 256, i1 false, null, null, i32 0, metadata !359, i32 443} ; [ DW_TAG_subprogram ]
!539 = metadata !{i32 786453, i32 0, metadata !"", i32 0, i32 0, i64 0, i64 0, i64 0, i32 0, null, metadata !540, i32 0, i32 0} ; [ DW_TAG_subroutine_type ]
!540 = metadata !{null, metadata !541}
!541 = metadata !{i32 786447, i32 0, metadata !"", i32 0, i32 0, i64 32, i64 32, i64 0, i32 64, metadata !462} ; [ DW_TAG_pointer_type ]
!542 = metadata !{i32 786478, i32 0, metadata !462, metadata !"sc_out", metadata !"sc_out", metadata !"", metadata !347, i32 444, metadata !543, i1 false, i1 false, i32 0, i32 0, null, i32 384, i1 false, null, null, i32 0, metadata !359, i32 444} ; [ DW_TAG_subprogram ]
!543 = metadata !{i32 786453, i32 0, metadata !"", i32 0, i32 0, i64 0, i64 0, i64 0, i32 0, null, metadata !544, i32 0, i32 0} ; [ DW_TAG_subroutine_type ]
!544 = metadata !{null, metadata !541, metadata !402}
!545 = metadata !{i32 786445, metadata !341, metadata !"dout", metadata !337, i32 16, i64 8, i64 8, i64 32, i32 0, metadata !546} ; [ DW_TAG_member ]
!546 = metadata !{i32 786434, metadata !345, metadata !"sc_fifo_out<_ap_sc_::sc_dt::sc_uint<8> >", metadata !347, i32 499, i64 8, i64 8, i32 0, i32 0, null, metadata !547, i32 0, null, metadata !1222} ; [ DW_TAG_class_type ]
!547 = metadata !{metadata !548, metadata !1251, metadata !1255, metadata !1258, metadata !1261, metadata !1264}
!548 = metadata !{i32 786460, metadata !546, null, metadata !347, i32 0, i64 0, i64 0, i64 0, i32 0, metadata !549} ; [ DW_TAG_inheritance ]
!549 = metadata !{i32 786434, metadata !345, metadata !"sc_port_b<_ap_sc_::sc_core::sc_fifo_out_if<_ap_sc_::sc_dt::sc_uint<8> > >", metadata !347, i32 281, i64 8, i64 8, i32 0, i32 0, null, metadata !550, i32 0, null, metadata !1249} ; [ DW_TAG_class_type ]
!550 = metadata !{metadata !551, metadata !552, metadata !1224, metadata !1228, metadata !1231, metadata !1235, metadata !1236, metadata !1239, metadata !1240, metadata !1244, metadata !1245}
!551 = metadata !{i32 786460, metadata !549, null, metadata !347, i32 0, i64 0, i64 0, i64 0, i32 0, metadata !353} ; [ DW_TAG_inheritance ]
!552 = metadata !{i32 786445, metadata !549, metadata !"m_if", metadata !347, i32 283, i64 8, i64 8, i64 0, i32 0, metadata !553} ; [ DW_TAG_member ]
!553 = metadata !{i32 786434, metadata !345, metadata !"sc_fifo_out_if<_ap_sc_::sc_dt::sc_uint<8> >", metadata !347, i32 248, i64 8, i64 8, i32 0, i32 0, null, metadata !554, i32 0, null, metadata !1222} ; [ DW_TAG_class_type ]
!554 = metadata !{metadata !555, metadata !556, metadata !1207, metadata !1211, metadata !1214, metadata !1217}
!555 = metadata !{i32 786460, metadata !553, null, metadata !347, i32 0, i64 0, i64 0, i64 0, i32 0, metadata !365} ; [ DW_TAG_inheritance ]
!556 = metadata !{i32 786445, metadata !553, metadata !"Val", metadata !347, i32 250, i64 8, i64 8, i64 0, i32 0, metadata !557} ; [ DW_TAG_member ]
!557 = metadata !{i32 786485, null, metadata !"", null, i32 0, i64 0, i64 0, i64 0, i32 0, metadata !558} ; [ DW_TAG_volatile_type ]
!558 = metadata !{i32 786434, metadata !559, metadata !"sc_uint<8>", metadata !561, i32 269, i64 8, i64 8, i32 0, i32 0, null, metadata !562, i32 0, null, metadata !1205} ; [ DW_TAG_class_type ]
!559 = metadata !{i32 786489, metadata !560, metadata !"sc_dt", metadata !561, i32 67} ; [ DW_TAG_namespace ]
!560 = metadata !{i32 786489, null, metadata !"_ap_sc_", metadata !561, i32 64} ; [ DW_TAG_namespace ]
!561 = metadata !{i32 786473, metadata !"C:/Xilinx/Vivado_HLS/2016.3/common/technology/autopilot/ap_sysc/ap_sc_dt.h", metadata !"C:\5CUsers\5CalienBot\5CDocuments\5CGitHub\5CDCT_base", null} ; [ DW_TAG_file_type ]
!562 = metadata !{metadata !563, metadata !1118, metadata !1122, metadata !1128, metadata !1133, metadata !1139, metadata !1143, metadata !1149, metadata !1152, metadata !1155, metadata !1158, metadata !1161, metadata !1164, metadata !1167, metadata !1170, metadata !1173, metadata !1176, metadata !1179, metadata !1182, metadata !1185, metadata !1188, metadata !1192, metadata !1197, metadata !1201, metadata !1204}
!563 = metadata !{i32 786460, metadata !558, null, metadata !561, i32 0, i64 0, i64 0, i64 0, i32 0, metadata !564} ; [ DW_TAG_inheritance ]
!564 = metadata !{i32 786434, null, metadata !"ap_int_base<8, false, true>", metadata !565, i32 1387, i64 8, i64 8, i32 0, i32 0, null, metadata !566, i32 0, null, metadata !1116} ; [ DW_TAG_class_type ]
!565 = metadata !{i32 786473, metadata !"C:/Xilinx/Vivado_HLS/2016.3/common/technology/autopilot\5Cap_int_syn.h", metadata !"C:\5CUsers\5CalienBot\5CDocuments\5CGitHub\5CDCT_base", null} ; [ DW_TAG_file_type ]
!566 = metadata !{metadata !567, metadata !581, metadata !585, metadata !593, metadata !599, metadata !602, metadata !606, metadata !610, metadata !614, metadata !618, metadata !621, metadata !625, metadata !629, metadata !633, metadata !638, metadata !643, metadata !647, metadata !651, metadata !654, metadata !657, metadata !661, metadata !664, metadata !667, metadata !668, metadata !672, metadata !675, metadata !678, metadata !681, metadata !684, metadata !687, metadata !690, metadata !693, metadata !696, metadata !699, metadata !702, metadata !705, metadata !714, metadata !717, metadata !720, metadata !723, metadata !726, metadata !729, metadata !732, metadata !735, metadata !738, metadata !741, metadata !744, metadata !747, metadata !750, metadata !751, metadata !755, metadata !758, metadata !759, metadata !760, metadata !761, metadata !762, metadata !763, metadata !766, metadata !767, metadata !770, metadata !771, metadata !772, metadata !773, metadata !774, metadata !775, metadata !778, metadata !779, metadata !780, metadata !783, metadata !784, metadata !787, metadata !788, metadata !1077, metadata !1081, metadata !1082, metadata !1085, metadata !1086, metadata !1090, metadata !1091, metadata !1092, metadata !1093, metadata !1096, metadata !1097, metadata !1098, metadata !1099, metadata !1100, metadata !1101, metadata !1102, metadata !1103, metadata !1104, metadata !1105, metadata !1106, metadata !1107, metadata !1110, metadata !1113}
!567 = metadata !{i32 786460, metadata !564, null, metadata !565, i32 0, i64 0, i64 0, i64 0, i32 0, metadata !568} ; [ DW_TAG_inheritance ]
!568 = metadata !{i32 786434, null, metadata !"ssdm_int<8 + 1024 * 0, false>", metadata !569, i32 18, i64 8, i64 8, i32 0, i32 0, null, metadata !570, i32 0, null, metadata !577} ; [ DW_TAG_class_type ]
!569 = metadata !{i32 786473, metadata !"C:/Xilinx/Vivado_HLS/2016.3/common/technology/autopilot/etc/autopilot_dt.def", metadata !"C:\5CUsers\5CalienBot\5CDocuments\5CGitHub\5CDCT_base", null} ; [ DW_TAG_file_type ]
!570 = metadata !{metadata !571, metadata !573}
!571 = metadata !{i32 786445, metadata !568, metadata !"V", metadata !569, i32 18, i64 8, i64 8, i64 0, i32 0, metadata !572} ; [ DW_TAG_member ]
!572 = metadata !{i32 786468, null, metadata !"uint8", null, i32 0, i64 8, i64 8, i64 0, i32 0, i32 7} ; [ DW_TAG_base_type ]
!573 = metadata !{i32 786478, i32 0, metadata !568, metadata !"ssdm_int", metadata !"ssdm_int", metadata !"", metadata !569, i32 18, metadata !574, i1 false, i1 false, i32 0, i32 0, null, i32 256, i1 false, null, null, i32 0, metadata !359, i32 18} ; [ DW_TAG_subprogram ]
!574 = metadata !{i32 786453, i32 0, metadata !"", i32 0, i32 0, i64 0, i64 0, i64 0, i32 0, null, metadata !575, i32 0, i32 0} ; [ DW_TAG_subroutine_type ]
!575 = metadata !{null, metadata !576}
!576 = metadata !{i32 786447, i32 0, metadata !"", i32 0, i32 0, i64 32, i64 32, i64 0, i32 64, metadata !568} ; [ DW_TAG_pointer_type ]
!577 = metadata !{metadata !578, metadata !580}
!578 = metadata !{i32 786480, null, metadata !"_AP_N", metadata !579, i64 8, null, i32 0, i32 0} ; [ DW_TAG_template_value_parameter ]
!579 = metadata !{i32 786468, null, metadata !"int", null, i32 0, i64 32, i64 32, i64 0, i32 0, i32 5} ; [ DW_TAG_base_type ]
!580 = metadata !{i32 786480, null, metadata !"_AP_S", metadata !373, i64 0, null, i32 0, i32 0} ; [ DW_TAG_template_value_parameter ]
!581 = metadata !{i32 786478, i32 0, metadata !564, metadata !"ap_int_base", metadata !"ap_int_base", metadata !"", metadata !565, i32 1428, metadata !582, i1 false, i1 false, i32 0, i32 0, null, i32 256, i1 false, null, null, i32 0, metadata !359, i32 1428} ; [ DW_TAG_subprogram ]
!582 = metadata !{i32 786453, i32 0, metadata !"", i32 0, i32 0, i64 0, i64 0, i64 0, i32 0, null, metadata !583, i32 0, i32 0} ; [ DW_TAG_subroutine_type ]
!583 = metadata !{null, metadata !584}
!584 = metadata !{i32 786447, i32 0, metadata !"", i32 0, i32 0, i64 32, i64 32, i64 0, i32 64, metadata !564} ; [ DW_TAG_pointer_type ]
!585 = metadata !{i32 786478, i32 0, metadata !564, metadata !"ap_int_base<8, false>", metadata !"ap_int_base<8, false>", metadata !"", metadata !565, i32 1440, metadata !586, i1 false, i1 false, i32 0, i32 0, null, i32 256, i1 false, null, metadata !590, i32 0, metadata !359, i32 1440} ; [ DW_TAG_subprogram ]
!586 = metadata !{i32 786453, i32 0, metadata !"", i32 0, i32 0, i64 0, i64 0, i64 0, i32 0, null, metadata !587, i32 0, i32 0} ; [ DW_TAG_subroutine_type ]
!587 = metadata !{null, metadata !584, metadata !588}
!588 = metadata !{i32 786448, null, null, null, i32 0, i64 0, i64 0, i64 0, i32 0, metadata !589} ; [ DW_TAG_reference_type ]
!589 = metadata !{i32 786470, null, metadata !"", null, i32 0, i64 0, i64 0, i64 0, i32 0, metadata !564} ; [ DW_TAG_const_type ]
!590 = metadata !{metadata !591, metadata !592}
!591 = metadata !{i32 786480, null, metadata !"_AP_W2", metadata !579, i64 8, null, i32 0, i32 0} ; [ DW_TAG_template_value_parameter ]
!592 = metadata !{i32 786480, null, metadata !"_AP_S2", metadata !373, i64 0, null, i32 0, i32 0} ; [ DW_TAG_template_value_parameter ]
!593 = metadata !{i32 786478, i32 0, metadata !564, metadata !"ap_int_base<8, false>", metadata !"ap_int_base<8, false>", metadata !"", metadata !565, i32 1443, metadata !594, i1 false, i1 false, i32 0, i32 0, null, i32 256, i1 false, null, metadata !590, i32 0, metadata !359, i32 1443} ; [ DW_TAG_subprogram ]
!594 = metadata !{i32 786453, i32 0, metadata !"", i32 0, i32 0, i64 0, i64 0, i64 0, i32 0, null, metadata !595, i32 0, i32 0} ; [ DW_TAG_subroutine_type ]
!595 = metadata !{null, metadata !584, metadata !596}
!596 = metadata !{i32 786448, null, null, null, i32 0, i64 0, i64 0, i64 0, i32 0, metadata !597} ; [ DW_TAG_reference_type ]
!597 = metadata !{i32 786470, null, metadata !"", null, i32 0, i64 0, i64 0, i64 0, i32 0, metadata !598} ; [ DW_TAG_const_type ]
!598 = metadata !{i32 786485, null, metadata !"", null, i32 0, i64 0, i64 0, i64 0, i32 0, metadata !564} ; [ DW_TAG_volatile_type ]
!599 = metadata !{i32 786478, i32 0, metadata !564, metadata !"ap_int_base", metadata !"ap_int_base", metadata !"", metadata !565, i32 1450, metadata !600, i1 false, i1 false, i32 0, i32 0, null, i32 384, i1 false, null, null, i32 0, metadata !359, i32 1450} ; [ DW_TAG_subprogram ]
!600 = metadata !{i32 786453, i32 0, metadata !"", i32 0, i32 0, i64 0, i64 0, i64 0, i32 0, null, metadata !601, i32 0, i32 0} ; [ DW_TAG_subroutine_type ]
!601 = metadata !{null, metadata !584, metadata !373}
!602 = metadata !{i32 786478, i32 0, metadata !564, metadata !"ap_int_base", metadata !"ap_int_base", metadata !"", metadata !565, i32 1451, metadata !603, i1 false, i1 false, i32 0, i32 0, null, i32 384, i1 false, null, null, i32 0, metadata !359, i32 1451} ; [ DW_TAG_subprogram ]
!603 = metadata !{i32 786453, i32 0, metadata !"", i32 0, i32 0, i64 0, i64 0, i64 0, i32 0, null, metadata !604, i32 0, i32 0} ; [ DW_TAG_subroutine_type ]
!604 = metadata !{null, metadata !584, metadata !605}
!605 = metadata !{i32 786468, null, metadata !"signed char", null, i32 0, i64 8, i64 8, i64 0, i32 0, i32 6} ; [ DW_TAG_base_type ]
!606 = metadata !{i32 786478, i32 0, metadata !564, metadata !"ap_int_base", metadata !"ap_int_base", metadata !"", metadata !565, i32 1452, metadata !607, i1 false, i1 false, i32 0, i32 0, null, i32 384, i1 false, null, null, i32 0, metadata !359, i32 1452} ; [ DW_TAG_subprogram ]
!607 = metadata !{i32 786453, i32 0, metadata !"", i32 0, i32 0, i64 0, i64 0, i64 0, i32 0, null, metadata !608, i32 0, i32 0} ; [ DW_TAG_subroutine_type ]
!608 = metadata !{null, metadata !584, metadata !609}
!609 = metadata !{i32 786468, null, metadata !"unsigned char", null, i32 0, i64 8, i64 8, i64 0, i32 0, i32 8} ; [ DW_TAG_base_type ]
!610 = metadata !{i32 786478, i32 0, metadata !564, metadata !"ap_int_base", metadata !"ap_int_base", metadata !"", metadata !565, i32 1453, metadata !611, i1 false, i1 false, i32 0, i32 0, null, i32 384, i1 false, null, null, i32 0, metadata !359, i32 1453} ; [ DW_TAG_subprogram ]
!611 = metadata !{i32 786453, i32 0, metadata !"", i32 0, i32 0, i64 0, i64 0, i64 0, i32 0, null, metadata !612, i32 0, i32 0} ; [ DW_TAG_subroutine_type ]
!612 = metadata !{null, metadata !584, metadata !613}
!613 = metadata !{i32 786468, null, metadata !"short", null, i32 0, i64 16, i64 16, i64 0, i32 0, i32 5} ; [ DW_TAG_base_type ]
!614 = metadata !{i32 786478, i32 0, metadata !564, metadata !"ap_int_base", metadata !"ap_int_base", metadata !"", metadata !565, i32 1454, metadata !615, i1 false, i1 false, i32 0, i32 0, null, i32 384, i1 false, null, null, i32 0, metadata !359, i32 1454} ; [ DW_TAG_subprogram ]
!615 = metadata !{i32 786453, i32 0, metadata !"", i32 0, i32 0, i64 0, i64 0, i64 0, i32 0, null, metadata !616, i32 0, i32 0} ; [ DW_TAG_subroutine_type ]
!616 = metadata !{null, metadata !584, metadata !617}
!617 = metadata !{i32 786468, null, metadata !"unsigned short", null, i32 0, i64 16, i64 16, i64 0, i32 0, i32 7} ; [ DW_TAG_base_type ]
!618 = metadata !{i32 786478, i32 0, metadata !564, metadata !"ap_int_base", metadata !"ap_int_base", metadata !"", metadata !565, i32 1455, metadata !619, i1 false, i1 false, i32 0, i32 0, null, i32 384, i1 false, null, null, i32 0, metadata !359, i32 1455} ; [ DW_TAG_subprogram ]
!619 = metadata !{i32 786453, i32 0, metadata !"", i32 0, i32 0, i64 0, i64 0, i64 0, i32 0, null, metadata !620, i32 0, i32 0} ; [ DW_TAG_subroutine_type ]
!620 = metadata !{null, metadata !584, metadata !579}
!621 = metadata !{i32 786478, i32 0, metadata !564, metadata !"ap_int_base", metadata !"ap_int_base", metadata !"", metadata !565, i32 1456, metadata !622, i1 false, i1 false, i32 0, i32 0, null, i32 384, i1 false, null, null, i32 0, metadata !359, i32 1456} ; [ DW_TAG_subprogram ]
!622 = metadata !{i32 786453, i32 0, metadata !"", i32 0, i32 0, i64 0, i64 0, i64 0, i32 0, null, metadata !623, i32 0, i32 0} ; [ DW_TAG_subroutine_type ]
!623 = metadata !{null, metadata !584, metadata !624}
!624 = metadata !{i32 786468, null, metadata !"unsigned int", null, i32 0, i64 32, i64 32, i64 0, i32 0, i32 7} ; [ DW_TAG_base_type ]
!625 = metadata !{i32 786478, i32 0, metadata !564, metadata !"ap_int_base", metadata !"ap_int_base", metadata !"", metadata !565, i32 1457, metadata !626, i1 false, i1 false, i32 0, i32 0, null, i32 384, i1 false, null, null, i32 0, metadata !359, i32 1457} ; [ DW_TAG_subprogram ]
!626 = metadata !{i32 786453, i32 0, metadata !"", i32 0, i32 0, i64 0, i64 0, i64 0, i32 0, null, metadata !627, i32 0, i32 0} ; [ DW_TAG_subroutine_type ]
!627 = metadata !{null, metadata !584, metadata !628}
!628 = metadata !{i32 786468, null, metadata !"long int", null, i32 0, i64 32, i64 32, i64 0, i32 0, i32 5} ; [ DW_TAG_base_type ]
!629 = metadata !{i32 786478, i32 0, metadata !564, metadata !"ap_int_base", metadata !"ap_int_base", metadata !"", metadata !565, i32 1458, metadata !630, i1 false, i1 false, i32 0, i32 0, null, i32 384, i1 false, null, null, i32 0, metadata !359, i32 1458} ; [ DW_TAG_subprogram ]
!630 = metadata !{i32 786453, i32 0, metadata !"", i32 0, i32 0, i64 0, i64 0, i64 0, i32 0, null, metadata !631, i32 0, i32 0} ; [ DW_TAG_subroutine_type ]
!631 = metadata !{null, metadata !584, metadata !632}
!632 = metadata !{i32 786468, null, metadata !"long unsigned int", null, i32 0, i64 32, i64 32, i64 0, i32 0, i32 7} ; [ DW_TAG_base_type ]
!633 = metadata !{i32 786478, i32 0, metadata !564, metadata !"ap_int_base", metadata !"ap_int_base", metadata !"", metadata !565, i32 1459, metadata !634, i1 false, i1 false, i32 0, i32 0, null, i32 384, i1 false, null, null, i32 0, metadata !359, i32 1459} ; [ DW_TAG_subprogram ]
!634 = metadata !{i32 786453, i32 0, metadata !"", i32 0, i32 0, i64 0, i64 0, i64 0, i32 0, null, metadata !635, i32 0, i32 0} ; [ DW_TAG_subroutine_type ]
!635 = metadata !{null, metadata !584, metadata !636}
!636 = metadata !{i32 786454, null, metadata !"ap_slong", metadata !565, i32 111, i64 0, i64 0, i64 0, i32 0, metadata !637} ; [ DW_TAG_typedef ]
!637 = metadata !{i32 786468, null, metadata !"long long int", null, i32 0, i64 64, i64 64, i64 0, i32 0, i32 5} ; [ DW_TAG_base_type ]
!638 = metadata !{i32 786478, i32 0, metadata !564, metadata !"ap_int_base", metadata !"ap_int_base", metadata !"", metadata !565, i32 1460, metadata !639, i1 false, i1 false, i32 0, i32 0, null, i32 384, i1 false, null, null, i32 0, metadata !359, i32 1460} ; [ DW_TAG_subprogram ]
!639 = metadata !{i32 786453, i32 0, metadata !"", i32 0, i32 0, i64 0, i64 0, i64 0, i32 0, null, metadata !640, i32 0, i32 0} ; [ DW_TAG_subroutine_type ]
!640 = metadata !{null, metadata !584, metadata !641}
!641 = metadata !{i32 786454, null, metadata !"ap_ulong", metadata !565, i32 110, i64 0, i64 0, i64 0, i32 0, metadata !642} ; [ DW_TAG_typedef ]
!642 = metadata !{i32 786468, null, metadata !"long long unsigned int", null, i32 0, i64 64, i64 64, i64 0, i32 0, i32 7} ; [ DW_TAG_base_type ]
!643 = metadata !{i32 786478, i32 0, metadata !564, metadata !"ap_int_base", metadata !"ap_int_base", metadata !"", metadata !565, i32 1461, metadata !644, i1 false, i1 false, i32 0, i32 0, null, i32 384, i1 false, null, null, i32 0, metadata !359, i32 1461} ; [ DW_TAG_subprogram ]
!644 = metadata !{i32 786453, i32 0, metadata !"", i32 0, i32 0, i64 0, i64 0, i64 0, i32 0, null, metadata !645, i32 0, i32 0} ; [ DW_TAG_subroutine_type ]
!645 = metadata !{null, metadata !584, metadata !646}
!646 = metadata !{i32 786468, null, metadata !"float", null, i32 0, i64 32, i64 32, i64 0, i32 0, i32 4} ; [ DW_TAG_base_type ]
!647 = metadata !{i32 786478, i32 0, metadata !564, metadata !"ap_int_base", metadata !"ap_int_base", metadata !"", metadata !565, i32 1462, metadata !648, i1 false, i1 false, i32 0, i32 0, null, i32 384, i1 false, null, null, i32 0, metadata !359, i32 1462} ; [ DW_TAG_subprogram ]
!648 = metadata !{i32 786453, i32 0, metadata !"", i32 0, i32 0, i64 0, i64 0, i64 0, i32 0, null, metadata !649, i32 0, i32 0} ; [ DW_TAG_subroutine_type ]
!649 = metadata !{null, metadata !584, metadata !650}
!650 = metadata !{i32 786468, null, metadata !"double", null, i32 0, i64 64, i64 64, i64 0, i32 0, i32 4} ; [ DW_TAG_base_type ]
!651 = metadata !{i32 786478, i32 0, metadata !564, metadata !"ap_int_base", metadata !"ap_int_base", metadata !"", metadata !565, i32 1489, metadata !652, i1 false, i1 false, i32 0, i32 0, null, i32 256, i1 false, null, null, i32 0, metadata !359, i32 1489} ; [ DW_TAG_subprogram ]
!652 = metadata !{i32 786453, i32 0, metadata !"", i32 0, i32 0, i64 0, i64 0, i64 0, i32 0, null, metadata !653, i32 0, i32 0} ; [ DW_TAG_subroutine_type ]
!653 = metadata !{null, metadata !584, metadata !402}
!654 = metadata !{i32 786478, i32 0, metadata !564, metadata !"ap_int_base", metadata !"ap_int_base", metadata !"", metadata !565, i32 1496, metadata !655, i1 false, i1 false, i32 0, i32 0, null, i32 256, i1 false, null, null, i32 0, metadata !359, i32 1496} ; [ DW_TAG_subprogram ]
!655 = metadata !{i32 786453, i32 0, metadata !"", i32 0, i32 0, i64 0, i64 0, i64 0, i32 0, null, metadata !656, i32 0, i32 0} ; [ DW_TAG_subroutine_type ]
!656 = metadata !{null, metadata !584, metadata !402, metadata !605}
!657 = metadata !{i32 786478, i32 0, metadata !564, metadata !"read", metadata !"read", metadata !"_ZNV11ap_int_baseILi8ELb0ELb1EE4readEv", metadata !565, i32 1517, metadata !658, i1 false, i1 false, i32 0, i32 0, null, i32 256, i1 false, null, null, i32 0, metadata !359, i32 1517} ; [ DW_TAG_subprogram ]
!658 = metadata !{i32 786453, i32 0, metadata !"", i32 0, i32 0, i64 0, i64 0, i64 0, i32 0, null, metadata !659, i32 0, i32 0} ; [ DW_TAG_subroutine_type ]
!659 = metadata !{metadata !564, metadata !660}
!660 = metadata !{i32 786447, i32 0, metadata !"", i32 0, i32 0, i64 32, i64 32, i64 0, i32 64, metadata !598} ; [ DW_TAG_pointer_type ]
!661 = metadata !{i32 786478, i32 0, metadata !564, metadata !"write", metadata !"write", metadata !"_ZNV11ap_int_baseILi8ELb0ELb1EE5writeERKS0_", metadata !565, i32 1523, metadata !662, i1 false, i1 false, i32 0, i32 0, null, i32 256, i1 false, null, null, i32 0, metadata !359, i32 1523} ; [ DW_TAG_subprogram ]
!662 = metadata !{i32 786453, i32 0, metadata !"", i32 0, i32 0, i64 0, i64 0, i64 0, i32 0, null, metadata !663, i32 0, i32 0} ; [ DW_TAG_subroutine_type ]
!663 = metadata !{null, metadata !660, metadata !588}
!664 = metadata !{i32 786478, i32 0, metadata !564, metadata !"operator=", metadata !"operator=", metadata !"_ZNV11ap_int_baseILi8ELb0ELb1EEaSERVKS0_", metadata !565, i32 1535, metadata !665, i1 false, i1 false, i32 0, i32 0, null, i32 256, i1 false, null, null, i32 0, metadata !359, i32 1535} ; [ DW_TAG_subprogram ]
!665 = metadata !{i32 786453, i32 0, metadata !"", i32 0, i32 0, i64 0, i64 0, i64 0, i32 0, null, metadata !666, i32 0, i32 0} ; [ DW_TAG_subroutine_type ]
!666 = metadata !{null, metadata !660, metadata !596}
!667 = metadata !{i32 786478, i32 0, metadata !564, metadata !"operator=", metadata !"operator=", metadata !"_ZNV11ap_int_baseILi8ELb0ELb1EEaSERKS0_", metadata !565, i32 1544, metadata !662, i1 false, i1 false, i32 0, i32 0, null, i32 256, i1 false, null, null, i32 0, metadata !359, i32 1544} ; [ DW_TAG_subprogram ]
!668 = metadata !{i32 786478, i32 0, metadata !564, metadata !"operator=", metadata !"operator=", metadata !"_ZN11ap_int_baseILi8ELb0ELb1EEaSERVKS0_", metadata !565, i32 1577, metadata !669, i1 false, i1 false, i32 0, i32 0, null, i32 256, i1 false, null, null, i32 0, metadata !359, i32 1577} ; [ DW_TAG_subprogram ]
!669 = metadata !{i32 786453, i32 0, metadata !"", i32 0, i32 0, i64 0, i64 0, i64 0, i32 0, null, metadata !670, i32 0, i32 0} ; [ DW_TAG_subroutine_type ]
!670 = metadata !{metadata !671, metadata !584, metadata !596}
!671 = metadata !{i32 786448, null, null, null, i32 0, i64 0, i64 0, i64 0, i32 0, metadata !564} ; [ DW_TAG_reference_type ]
!672 = metadata !{i32 786478, i32 0, metadata !564, metadata !"operator=", metadata !"operator=", metadata !"_ZN11ap_int_baseILi8ELb0ELb1EEaSERKS0_", metadata !565, i32 1582, metadata !673, i1 false, i1 false, i32 0, i32 0, null, i32 256, i1 false, null, null, i32 0, metadata !359, i32 1582} ; [ DW_TAG_subprogram ]
!673 = metadata !{i32 786453, i32 0, metadata !"", i32 0, i32 0, i64 0, i64 0, i64 0, i32 0, null, metadata !674, i32 0, i32 0} ; [ DW_TAG_subroutine_type ]
!674 = metadata !{metadata !671, metadata !584, metadata !588}
!675 = metadata !{i32 786478, i32 0, metadata !564, metadata !"operator=", metadata !"operator=", metadata !"_ZN11ap_int_baseILi8ELb0ELb1EEaSEPKc", metadata !565, i32 1586, metadata !676, i1 false, i1 false, i32 0, i32 0, null, i32 256, i1 false, null, null, i32 0, metadata !359, i32 1586} ; [ DW_TAG_subprogram ]
!676 = metadata !{i32 786453, i32 0, metadata !"", i32 0, i32 0, i64 0, i64 0, i64 0, i32 0, null, metadata !677, i32 0, i32 0} ; [ DW_TAG_subroutine_type ]
!677 = metadata !{metadata !671, metadata !584, metadata !402}
!678 = metadata !{i32 786478, i32 0, metadata !564, metadata !"set", metadata !"set", metadata !"_ZN11ap_int_baseILi8ELb0ELb1EE3setEPKca", metadata !565, i32 1594, metadata !679, i1 false, i1 false, i32 0, i32 0, null, i32 256, i1 false, null, null, i32 0, metadata !359, i32 1594} ; [ DW_TAG_subprogram ]
!679 = metadata !{i32 786453, i32 0, metadata !"", i32 0, i32 0, i64 0, i64 0, i64 0, i32 0, null, metadata !680, i32 0, i32 0} ; [ DW_TAG_subroutine_type ]
!680 = metadata !{metadata !671, metadata !584, metadata !402, metadata !605}
!681 = metadata !{i32 786478, i32 0, metadata !564, metadata !"operator=", metadata !"operator=", metadata !"_ZN11ap_int_baseILi8ELb0ELb1EEaSEa", metadata !565, i32 1608, metadata !682, i1 false, i1 false, i32 0, i32 0, null, i32 256, i1 false, null, null, i32 0, metadata !359, i32 1608} ; [ DW_TAG_subprogram ]
!682 = metadata !{i32 786453, i32 0, metadata !"", i32 0, i32 0, i64 0, i64 0, i64 0, i32 0, null, metadata !683, i32 0, i32 0} ; [ DW_TAG_subroutine_type ]
!683 = metadata !{metadata !671, metadata !584, metadata !605}
!684 = metadata !{i32 786478, i32 0, metadata !564, metadata !"operator=", metadata !"operator=", metadata !"_ZN11ap_int_baseILi8ELb0ELb1EEaSEh", metadata !565, i32 1609, metadata !685, i1 false, i1 false, i32 0, i32 0, null, i32 256, i1 false, null, null, i32 0, metadata !359, i32 1609} ; [ DW_TAG_subprogram ]
!685 = metadata !{i32 786453, i32 0, metadata !"", i32 0, i32 0, i64 0, i64 0, i64 0, i32 0, null, metadata !686, i32 0, i32 0} ; [ DW_TAG_subroutine_type ]
!686 = metadata !{metadata !671, metadata !584, metadata !609}
!687 = metadata !{i32 786478, i32 0, metadata !564, metadata !"operator=", metadata !"operator=", metadata !"_ZN11ap_int_baseILi8ELb0ELb1EEaSEs", metadata !565, i32 1610, metadata !688, i1 false, i1 false, i32 0, i32 0, null, i32 256, i1 false, null, null, i32 0, metadata !359, i32 1610} ; [ DW_TAG_subprogram ]
!688 = metadata !{i32 786453, i32 0, metadata !"", i32 0, i32 0, i64 0, i64 0, i64 0, i32 0, null, metadata !689, i32 0, i32 0} ; [ DW_TAG_subroutine_type ]
!689 = metadata !{metadata !671, metadata !584, metadata !613}
!690 = metadata !{i32 786478, i32 0, metadata !564, metadata !"operator=", metadata !"operator=", metadata !"_ZN11ap_int_baseILi8ELb0ELb1EEaSEt", metadata !565, i32 1611, metadata !691, i1 false, i1 false, i32 0, i32 0, null, i32 256, i1 false, null, null, i32 0, metadata !359, i32 1611} ; [ DW_TAG_subprogram ]
!691 = metadata !{i32 786453, i32 0, metadata !"", i32 0, i32 0, i64 0, i64 0, i64 0, i32 0, null, metadata !692, i32 0, i32 0} ; [ DW_TAG_subroutine_type ]
!692 = metadata !{metadata !671, metadata !584, metadata !617}
!693 = metadata !{i32 786478, i32 0, metadata !564, metadata !"operator=", metadata !"operator=", metadata !"_ZN11ap_int_baseILi8ELb0ELb1EEaSEi", metadata !565, i32 1612, metadata !694, i1 false, i1 false, i32 0, i32 0, null, i32 256, i1 false, null, null, i32 0, metadata !359, i32 1612} ; [ DW_TAG_subprogram ]
!694 = metadata !{i32 786453, i32 0, metadata !"", i32 0, i32 0, i64 0, i64 0, i64 0, i32 0, null, metadata !695, i32 0, i32 0} ; [ DW_TAG_subroutine_type ]
!695 = metadata !{metadata !671, metadata !584, metadata !579}
!696 = metadata !{i32 786478, i32 0, metadata !564, metadata !"operator=", metadata !"operator=", metadata !"_ZN11ap_int_baseILi8ELb0ELb1EEaSEj", metadata !565, i32 1613, metadata !697, i1 false, i1 false, i32 0, i32 0, null, i32 256, i1 false, null, null, i32 0, metadata !359, i32 1613} ; [ DW_TAG_subprogram ]
!697 = metadata !{i32 786453, i32 0, metadata !"", i32 0, i32 0, i64 0, i64 0, i64 0, i32 0, null, metadata !698, i32 0, i32 0} ; [ DW_TAG_subroutine_type ]
!698 = metadata !{metadata !671, metadata !584, metadata !624}
!699 = metadata !{i32 786478, i32 0, metadata !564, metadata !"operator=", metadata !"operator=", metadata !"_ZN11ap_int_baseILi8ELb0ELb1EEaSEx", metadata !565, i32 1614, metadata !700, i1 false, i1 false, i32 0, i32 0, null, i32 256, i1 false, null, null, i32 0, metadata !359, i32 1614} ; [ DW_TAG_subprogram ]
!700 = metadata !{i32 786453, i32 0, metadata !"", i32 0, i32 0, i64 0, i64 0, i64 0, i32 0, null, metadata !701, i32 0, i32 0} ; [ DW_TAG_subroutine_type ]
!701 = metadata !{metadata !671, metadata !584, metadata !636}
!702 = metadata !{i32 786478, i32 0, metadata !564, metadata !"operator=", metadata !"operator=", metadata !"_ZN11ap_int_baseILi8ELb0ELb1EEaSEy", metadata !565, i32 1615, metadata !703, i1 false, i1 false, i32 0, i32 0, null, i32 256, i1 false, null, null, i32 0, metadata !359, i32 1615} ; [ DW_TAG_subprogram ]
!703 = metadata !{i32 786453, i32 0, metadata !"", i32 0, i32 0, i64 0, i64 0, i64 0, i32 0, null, metadata !704, i32 0, i32 0} ; [ DW_TAG_subroutine_type ]
!704 = metadata !{metadata !671, metadata !584, metadata !641}
!705 = metadata !{i32 786478, i32 0, metadata !564, metadata !"operator unsigned char", metadata !"operator unsigned char", metadata !"_ZNK11ap_int_baseILi8ELb0ELb1EEcvhEv", metadata !565, i32 1653, metadata !706, i1 false, i1 false, i32 0, i32 0, null, i32 256, i1 false, null, null, i32 0, metadata !359, i32 1653} ; [ DW_TAG_subprogram ]
!706 = metadata !{i32 786453, i32 0, metadata !"", i32 0, i32 0, i64 0, i64 0, i64 0, i32 0, null, metadata !707, i32 0, i32 0} ; [ DW_TAG_subroutine_type ]
!707 = metadata !{metadata !708, metadata !713}
!708 = metadata !{i32 786454, metadata !564, metadata !"RetType", metadata !565, i32 1392, i64 0, i64 0, i64 0, i32 0, metadata !709} ; [ DW_TAG_typedef ]
!709 = metadata !{i32 786454, metadata !710, metadata !"Type", metadata !565, i32 1364, i64 0, i64 0, i64 0, i32 0, metadata !609} ; [ DW_TAG_typedef ]
!710 = metadata !{i32 786434, null, metadata !"retval<1, false>", metadata !565, i32 1363, i64 8, i64 8, i32 0, i32 0, null, metadata !415, i32 0, null, metadata !711} ; [ DW_TAG_class_type ]
!711 = metadata !{metadata !712, metadata !580}
!712 = metadata !{i32 786480, null, metadata !"_AP_N", metadata !579, i64 1, null, i32 0, i32 0} ; [ DW_TAG_template_value_parameter ]
!713 = metadata !{i32 786447, i32 0, metadata !"", i32 0, i32 0, i64 32, i64 32, i64 0, i32 64, metadata !589} ; [ DW_TAG_pointer_type ]
!714 = metadata !{i32 786478, i32 0, metadata !564, metadata !"to_bool", metadata !"to_bool", metadata !"_ZNK11ap_int_baseILi8ELb0ELb1EE7to_boolEv", metadata !565, i32 1659, metadata !715, i1 false, i1 false, i32 0, i32 0, null, i32 256, i1 false, null, null, i32 0, metadata !359, i32 1659} ; [ DW_TAG_subprogram ]
!715 = metadata !{i32 786453, i32 0, metadata !"", i32 0, i32 0, i64 0, i64 0, i64 0, i32 0, null, metadata !716, i32 0, i32 0} ; [ DW_TAG_subroutine_type ]
!716 = metadata !{metadata !373, metadata !713}
!717 = metadata !{i32 786478, i32 0, metadata !564, metadata !"to_uchar", metadata !"to_uchar", metadata !"_ZNK11ap_int_baseILi8ELb0ELb1EE8to_ucharEv", metadata !565, i32 1660, metadata !718, i1 false, i1 false, i32 0, i32 0, null, i32 256, i1 false, null, null, i32 0, metadata !359, i32 1660} ; [ DW_TAG_subprogram ]
!718 = metadata !{i32 786453, i32 0, metadata !"", i32 0, i32 0, i64 0, i64 0, i64 0, i32 0, null, metadata !719, i32 0, i32 0} ; [ DW_TAG_subroutine_type ]
!719 = metadata !{metadata !609, metadata !713}
!720 = metadata !{i32 786478, i32 0, metadata !564, metadata !"to_char", metadata !"to_char", metadata !"_ZNK11ap_int_baseILi8ELb0ELb1EE7to_charEv", metadata !565, i32 1661, metadata !721, i1 false, i1 false, i32 0, i32 0, null, i32 256, i1 false, null, null, i32 0, metadata !359, i32 1661} ; [ DW_TAG_subprogram ]
!721 = metadata !{i32 786453, i32 0, metadata !"", i32 0, i32 0, i64 0, i64 0, i64 0, i32 0, null, metadata !722, i32 0, i32 0} ; [ DW_TAG_subroutine_type ]
!722 = metadata !{metadata !605, metadata !713}
!723 = metadata !{i32 786478, i32 0, metadata !564, metadata !"to_ushort", metadata !"to_ushort", metadata !"_ZNK11ap_int_baseILi8ELb0ELb1EE9to_ushortEv", metadata !565, i32 1662, metadata !724, i1 false, i1 false, i32 0, i32 0, null, i32 256, i1 false, null, null, i32 0, metadata !359, i32 1662} ; [ DW_TAG_subprogram ]
!724 = metadata !{i32 786453, i32 0, metadata !"", i32 0, i32 0, i64 0, i64 0, i64 0, i32 0, null, metadata !725, i32 0, i32 0} ; [ DW_TAG_subroutine_type ]
!725 = metadata !{metadata !617, metadata !713}
!726 = metadata !{i32 786478, i32 0, metadata !564, metadata !"to_short", metadata !"to_short", metadata !"_ZNK11ap_int_baseILi8ELb0ELb1EE8to_shortEv", metadata !565, i32 1663, metadata !727, i1 false, i1 false, i32 0, i32 0, null, i32 256, i1 false, null, null, i32 0, metadata !359, i32 1663} ; [ DW_TAG_subprogram ]
!727 = metadata !{i32 786453, i32 0, metadata !"", i32 0, i32 0, i64 0, i64 0, i64 0, i32 0, null, metadata !728, i32 0, i32 0} ; [ DW_TAG_subroutine_type ]
!728 = metadata !{metadata !613, metadata !713}
!729 = metadata !{i32 786478, i32 0, metadata !564, metadata !"to_int", metadata !"to_int", metadata !"_ZNK11ap_int_baseILi8ELb0ELb1EE6to_intEv", metadata !565, i32 1664, metadata !730, i1 false, i1 false, i32 0, i32 0, null, i32 256, i1 false, null, null, i32 0, metadata !359, i32 1664} ; [ DW_TAG_subprogram ]
!730 = metadata !{i32 786453, i32 0, metadata !"", i32 0, i32 0, i64 0, i64 0, i64 0, i32 0, null, metadata !731, i32 0, i32 0} ; [ DW_TAG_subroutine_type ]
!731 = metadata !{metadata !579, metadata !713}
!732 = metadata !{i32 786478, i32 0, metadata !564, metadata !"to_uint", metadata !"to_uint", metadata !"_ZNK11ap_int_baseILi8ELb0ELb1EE7to_uintEv", metadata !565, i32 1665, metadata !733, i1 false, i1 false, i32 0, i32 0, null, i32 256, i1 false, null, null, i32 0, metadata !359, i32 1665} ; [ DW_TAG_subprogram ]
!733 = metadata !{i32 786453, i32 0, metadata !"", i32 0, i32 0, i64 0, i64 0, i64 0, i32 0, null, metadata !734, i32 0, i32 0} ; [ DW_TAG_subroutine_type ]
!734 = metadata !{metadata !624, metadata !713}
!735 = metadata !{i32 786478, i32 0, metadata !564, metadata !"to_long", metadata !"to_long", metadata !"_ZNK11ap_int_baseILi8ELb0ELb1EE7to_longEv", metadata !565, i32 1666, metadata !736, i1 false, i1 false, i32 0, i32 0, null, i32 256, i1 false, null, null, i32 0, metadata !359, i32 1666} ; [ DW_TAG_subprogram ]
!736 = metadata !{i32 786453, i32 0, metadata !"", i32 0, i32 0, i64 0, i64 0, i64 0, i32 0, null, metadata !737, i32 0, i32 0} ; [ DW_TAG_subroutine_type ]
!737 = metadata !{metadata !628, metadata !713}
!738 = metadata !{i32 786478, i32 0, metadata !564, metadata !"to_ulong", metadata !"to_ulong", metadata !"_ZNK11ap_int_baseILi8ELb0ELb1EE8to_ulongEv", metadata !565, i32 1667, metadata !739, i1 false, i1 false, i32 0, i32 0, null, i32 256, i1 false, null, null, i32 0, metadata !359, i32 1667} ; [ DW_TAG_subprogram ]
!739 = metadata !{i32 786453, i32 0, metadata !"", i32 0, i32 0, i64 0, i64 0, i64 0, i32 0, null, metadata !740, i32 0, i32 0} ; [ DW_TAG_subroutine_type ]
!740 = metadata !{metadata !632, metadata !713}
!741 = metadata !{i32 786478, i32 0, metadata !564, metadata !"to_int64", metadata !"to_int64", metadata !"_ZNK11ap_int_baseILi8ELb0ELb1EE8to_int64Ev", metadata !565, i32 1668, metadata !742, i1 false, i1 false, i32 0, i32 0, null, i32 256, i1 false, null, null, i32 0, metadata !359, i32 1668} ; [ DW_TAG_subprogram ]
!742 = metadata !{i32 786453, i32 0, metadata !"", i32 0, i32 0, i64 0, i64 0, i64 0, i32 0, null, metadata !743, i32 0, i32 0} ; [ DW_TAG_subroutine_type ]
!743 = metadata !{metadata !636, metadata !713}
!744 = metadata !{i32 786478, i32 0, metadata !564, metadata !"to_uint64", metadata !"to_uint64", metadata !"_ZNK11ap_int_baseILi8ELb0ELb1EE9to_uint64Ev", metadata !565, i32 1669, metadata !745, i1 false, i1 false, i32 0, i32 0, null, i32 256, i1 false, null, null, i32 0, metadata !359, i32 1669} ; [ DW_TAG_subprogram ]
!745 = metadata !{i32 786453, i32 0, metadata !"", i32 0, i32 0, i64 0, i64 0, i64 0, i32 0, null, metadata !746, i32 0, i32 0} ; [ DW_TAG_subroutine_type ]
!746 = metadata !{metadata !641, metadata !713}
!747 = metadata !{i32 786478, i32 0, metadata !564, metadata !"to_double", metadata !"to_double", metadata !"_ZNK11ap_int_baseILi8ELb0ELb1EE9to_doubleEv", metadata !565, i32 1670, metadata !748, i1 false, i1 false, i32 0, i32 0, null, i32 256, i1 false, null, null, i32 0, metadata !359, i32 1670} ; [ DW_TAG_subprogram ]
!748 = metadata !{i32 786453, i32 0, metadata !"", i32 0, i32 0, i64 0, i64 0, i64 0, i32 0, null, metadata !749, i32 0, i32 0} ; [ DW_TAG_subroutine_type ]
!749 = metadata !{metadata !650, metadata !713}
!750 = metadata !{i32 786478, i32 0, metadata !564, metadata !"length", metadata !"length", metadata !"_ZNK11ap_int_baseILi8ELb0ELb1EE6lengthEv", metadata !565, i32 1684, metadata !730, i1 false, i1 false, i32 0, i32 0, null, i32 256, i1 false, null, null, i32 0, metadata !359, i32 1684} ; [ DW_TAG_subprogram ]
!751 = metadata !{i32 786478, i32 0, metadata !564, metadata !"length", metadata !"length", metadata !"_ZNVK11ap_int_baseILi8ELb0ELb1EE6lengthEv", metadata !565, i32 1685, metadata !752, i1 false, i1 false, i32 0, i32 0, null, i32 256, i1 false, null, null, i32 0, metadata !359, i32 1685} ; [ DW_TAG_subprogram ]
!752 = metadata !{i32 786453, i32 0, metadata !"", i32 0, i32 0, i64 0, i64 0, i64 0, i32 0, null, metadata !753, i32 0, i32 0} ; [ DW_TAG_subroutine_type ]
!753 = metadata !{metadata !579, metadata !754}
!754 = metadata !{i32 786447, i32 0, metadata !"", i32 0, i32 0, i64 32, i64 32, i64 0, i32 64, metadata !597} ; [ DW_TAG_pointer_type ]
!755 = metadata !{i32 786478, i32 0, metadata !564, metadata !"reverse", metadata !"reverse", metadata !"_ZN11ap_int_baseILi8ELb0ELb1EE7reverseEv", metadata !565, i32 1690, metadata !756, i1 false, i1 false, i32 0, i32 0, null, i32 256, i1 false, null, null, i32 0, metadata !359, i32 1690} ; [ DW_TAG_subprogram ]
!756 = metadata !{i32 786453, i32 0, metadata !"", i32 0, i32 0, i64 0, i64 0, i64 0, i32 0, null, metadata !757, i32 0, i32 0} ; [ DW_TAG_subroutine_type ]
!757 = metadata !{metadata !671, metadata !584}
!758 = metadata !{i32 786478, i32 0, metadata !564, metadata !"iszero", metadata !"iszero", metadata !"_ZNK11ap_int_baseILi8ELb0ELb1EE6iszeroEv", metadata !565, i32 1696, metadata !715, i1 false, i1 false, i32 0, i32 0, null, i32 256, i1 false, null, null, i32 0, metadata !359, i32 1696} ; [ DW_TAG_subprogram ]
!759 = metadata !{i32 786478, i32 0, metadata !564, metadata !"is_zero", metadata !"is_zero", metadata !"_ZNK11ap_int_baseILi8ELb0ELb1EE7is_zeroEv", metadata !565, i32 1701, metadata !715, i1 false, i1 false, i32 0, i32 0, null, i32 256, i1 false, null, null, i32 0, metadata !359, i32 1701} ; [ DW_TAG_subprogram ]
!760 = metadata !{i32 786478, i32 0, metadata !564, metadata !"sign", metadata !"sign", metadata !"_ZNK11ap_int_baseILi8ELb0ELb1EE4signEv", metadata !565, i32 1706, metadata !715, i1 false, i1 false, i32 0, i32 0, null, i32 256, i1 false, null, null, i32 0, metadata !359, i32 1706} ; [ DW_TAG_subprogram ]
!761 = metadata !{i32 786478, i32 0, metadata !564, metadata !"clear", metadata !"clear", metadata !"_ZN11ap_int_baseILi8ELb0ELb1EE5clearEi", metadata !565, i32 1714, metadata !619, i1 false, i1 false, i32 0, i32 0, null, i32 256, i1 false, null, null, i32 0, metadata !359, i32 1714} ; [ DW_TAG_subprogram ]
!762 = metadata !{i32 786478, i32 0, metadata !564, metadata !"invert", metadata !"invert", metadata !"_ZN11ap_int_baseILi8ELb0ELb1EE6invertEi", metadata !565, i32 1720, metadata !619, i1 false, i1 false, i32 0, i32 0, null, i32 256, i1 false, null, null, i32 0, metadata !359, i32 1720} ; [ DW_TAG_subprogram ]
!763 = metadata !{i32 786478, i32 0, metadata !564, metadata !"test", metadata !"test", metadata !"_ZNK11ap_int_baseILi8ELb0ELb1EE4testEi", metadata !565, i32 1728, metadata !764, i1 false, i1 false, i32 0, i32 0, null, i32 256, i1 false, null, null, i32 0, metadata !359, i32 1728} ; [ DW_TAG_subprogram ]
!764 = metadata !{i32 786453, i32 0, metadata !"", i32 0, i32 0, i64 0, i64 0, i64 0, i32 0, null, metadata !765, i32 0, i32 0} ; [ DW_TAG_subroutine_type ]
!765 = metadata !{metadata !373, metadata !713, metadata !579}
!766 = metadata !{i32 786478, i32 0, metadata !564, metadata !"set", metadata !"set", metadata !"_ZN11ap_int_baseILi8ELb0ELb1EE3setEi", metadata !565, i32 1734, metadata !619, i1 false, i1 false, i32 0, i32 0, null, i32 256, i1 false, null, null, i32 0, metadata !359, i32 1734} ; [ DW_TAG_subprogram ]
!767 = metadata !{i32 786478, i32 0, metadata !564, metadata !"set", metadata !"set", metadata !"_ZN11ap_int_baseILi8ELb0ELb1EE3setEib", metadata !565, i32 1740, metadata !768, i1 false, i1 false, i32 0, i32 0, null, i32 256, i1 false, null, null, i32 0, metadata !359, i32 1740} ; [ DW_TAG_subprogram ]
!768 = metadata !{i32 786453, i32 0, metadata !"", i32 0, i32 0, i64 0, i64 0, i64 0, i32 0, null, metadata !769, i32 0, i32 0} ; [ DW_TAG_subroutine_type ]
!769 = metadata !{null, metadata !584, metadata !579, metadata !373}
!770 = metadata !{i32 786478, i32 0, metadata !564, metadata !"lrotate", metadata !"lrotate", metadata !"_ZN11ap_int_baseILi8ELb0ELb1EE7lrotateEi", metadata !565, i32 1747, metadata !619, i1 false, i1 false, i32 0, i32 0, null, i32 256, i1 false, null, null, i32 0, metadata !359, i32 1747} ; [ DW_TAG_subprogram ]
!771 = metadata !{i32 786478, i32 0, metadata !564, metadata !"rrotate", metadata !"rrotate", metadata !"_ZN11ap_int_baseILi8ELb0ELb1EE7rrotateEi", metadata !565, i32 1756, metadata !619, i1 false, i1 false, i32 0, i32 0, null, i32 256, i1 false, null, null, i32 0, metadata !359, i32 1756} ; [ DW_TAG_subprogram ]
!772 = metadata !{i32 786478, i32 0, metadata !564, metadata !"set_bit", metadata !"set_bit", metadata !"_ZN11ap_int_baseILi8ELb0ELb1EE7set_bitEib", metadata !565, i32 1764, metadata !768, i1 false, i1 false, i32 0, i32 0, null, i32 256, i1 false, null, null, i32 0, metadata !359, i32 1764} ; [ DW_TAG_subprogram ]
!773 = metadata !{i32 786478, i32 0, metadata !564, metadata !"get_bit", metadata !"get_bit", metadata !"_ZNK11ap_int_baseILi8ELb0ELb1EE7get_bitEi", metadata !565, i32 1769, metadata !764, i1 false, i1 false, i32 0, i32 0, null, i32 256, i1 false, null, null, i32 0, metadata !359, i32 1769} ; [ DW_TAG_subprogram ]
!774 = metadata !{i32 786478, i32 0, metadata !564, metadata !"b_not", metadata !"b_not", metadata !"_ZN11ap_int_baseILi8ELb0ELb1EE5b_notEv", metadata !565, i32 1774, metadata !582, i1 false, i1 false, i32 0, i32 0, null, i32 256, i1 false, null, null, i32 0, metadata !359, i32 1774} ; [ DW_TAG_subprogram ]
!775 = metadata !{i32 786478, i32 0, metadata !564, metadata !"countLeadingZeros", metadata !"countLeadingZeros", metadata !"_ZN11ap_int_baseILi8ELb0ELb1EE17countLeadingZerosEv", metadata !565, i32 1781, metadata !776, i1 false, i1 false, i32 0, i32 0, null, i32 256, i1 false, null, null, i32 0, metadata !359, i32 1781} ; [ DW_TAG_subprogram ]
!776 = metadata !{i32 786453, i32 0, metadata !"", i32 0, i32 0, i64 0, i64 0, i64 0, i32 0, null, metadata !777, i32 0, i32 0} ; [ DW_TAG_subroutine_type ]
!777 = metadata !{metadata !579, metadata !584}
!778 = metadata !{i32 786478, i32 0, metadata !564, metadata !"operator++", metadata !"operator++", metadata !"_ZN11ap_int_baseILi8ELb0ELb1EEppEv", metadata !565, i32 1838, metadata !756, i1 false, i1 false, i32 0, i32 0, null, i32 256, i1 false, null, null, i32 0, metadata !359, i32 1838} ; [ DW_TAG_subprogram ]
!779 = metadata !{i32 786478, i32 0, metadata !564, metadata !"operator--", metadata !"operator--", metadata !"_ZN11ap_int_baseILi8ELb0ELb1EEmmEv", metadata !565, i32 1842, metadata !756, i1 false, i1 false, i32 0, i32 0, null, i32 256, i1 false, null, null, i32 0, metadata !359, i32 1842} ; [ DW_TAG_subprogram ]
!780 = metadata !{i32 786478, i32 0, metadata !564, metadata !"operator++", metadata !"operator++", metadata !"_ZN11ap_int_baseILi8ELb0ELb1EEppEi", metadata !565, i32 1850, metadata !781, i1 false, i1 false, i32 0, i32 0, null, i32 256, i1 false, null, null, i32 0, metadata !359, i32 1850} ; [ DW_TAG_subprogram ]
